ARM GAS  C:\Users\au576633\AppData\Local\Temp\ccYdjPbr.s 			page 1


   1              		.syntax unified
   2              		.cpu cortex-m3
   3              		.fpu softvfp
   4              		.eabi_attribute 20, 1
   5              		.eabi_attribute 21, 1
   6              		.eabi_attribute 23, 3
   7              		.eabi_attribute 24, 1
   8              		.eabi_attribute 25, 1
   9              		.eabi_attribute 26, 1
  10              		.eabi_attribute 30, 1
  11              		.eabi_attribute 34, 1
  12              		.eabi_attribute 18, 4
  13              		.thumb
  14              		.syntax unified
  15              		.file	"Balldispenser.c"
  16              		.text
  17              	.Ltext0:
  18              		.cfi_sections	.debug_frame
  19              		.section	.text.initBallDispenser,"ax",%progbits
  20              		.align	2
  21              		.global	initBallDispenser
  22              		.thumb
  23              		.thumb_func
  24              		.type	initBallDispenser, %function
  25              	initBallDispenser:
  26              	.LFB64:
  27              		.file 1 "Balldispenser.c"
   1:Balldispenser.c **** #include "Balldispenser.h"
   2:Balldispenser.c **** 
   3:Balldispenser.c **** #define NUMBER_OF_BALLS 2
   4:Balldispenser.c **** 
   5:Balldispenser.c **** static uint8 ball_count;
   6:Balldispenser.c **** static uint16 V_Sample;
   7:Balldispenser.c **** 
   8:Balldispenser.c **** /*******************************************************************************
   9:Balldispenser.c **** * Function Name: initBallDispenser
  10:Balldispenser.c **** ********************************************************************************
  11:Balldispenser.c **** *
  12:Balldispenser.c **** * Summary:     
  13:Balldispenser.c **** *
  14:Balldispenser.c **** * Parameters:
  15:Balldispenser.c **** *  None.
  16:Balldispenser.c **** *
  17:Balldispenser.c **** * Return:
  18:Balldispenser.c **** *  None.
  19:Balldispenser.c **** *
  20:Balldispenser.c **** *******************************************************************************/
  21:Balldispenser.c **** void initBallDispenser()
  22:Balldispenser.c **** {
  28              		.loc 1 22 0
  29              		.cfi_startproc
  30              		@ args = 0, pretend = 0, frame = 0
  31              		@ frame_needed = 0, uses_anonymous_args = 0
  32 0000 08B5     		push	{r3, lr}
  33              		.cfi_def_cfa_offset 8
  34              		.cfi_offset 3, -8
  35              		.cfi_offset 14, -4
ARM GAS  C:\Users\au576633\AppData\Local\Temp\ccYdjPbr.s 			page 2


  23:Balldispenser.c ****     PWM_1_Start();
  36              		.loc 1 23 0
  37 0002 FFF7FEFF 		bl	PWM_1_Start
  38              	.LVL0:
  24:Balldispenser.c ****     Sample_Hold_1_Start();
  39              		.loc 1 24 0
  40 0006 FFF7FEFF 		bl	Sample_Hold_1_Start
  41              	.LVL1:
  25:Balldispenser.c ****     ADC_DelSig_1_Start();
  42              		.loc 1 25 0
  43 000a FFF7FEFF 		bl	ADC_DelSig_1_Start
  44              	.LVL2:
  45 000e 08BD     		pop	{r3, pc}
  46              		.cfi_endproc
  47              	.LFE64:
  48              		.size	initBallDispenser, .-initBallDispenser
  49              		.section	.text.DispenseBalls,"ax",%progbits
  50              		.align	2
  51              		.global	DispenseBalls
  52              		.thumb
  53              		.thumb_func
  54              		.type	DispenseBalls, %function
  55              	DispenseBalls:
  56              	.LFB65:
  26:Balldispenser.c **** }
  27:Balldispenser.c **** 
  28:Balldispenser.c **** void DispenseBalls()
  29:Balldispenser.c **** {
  57              		.loc 1 29 0
  58              		.cfi_startproc
  59              		@ args = 0, pretend = 0, frame = 0
  60              		@ frame_needed = 0, uses_anonymous_args = 0
  61 0000 10B5     		push	{r4, lr}
  62              		.cfi_def_cfa_offset 8
  63              		.cfi_offset 4, -8
  64              		.cfi_offset 14, -4
  65              	.LVL3:
  30:Balldispenser.c ****     uint8 count = 0;
  66              		.loc 1 30 0
  67 0002 0022     		movs	r2, #0
  31:Balldispenser.c ****     while(count++<(NUMBER_OF_BALLS))
  68              		.loc 1 31 0
  69 0004 10E0     		b	.L4
  70              	.LVL4:
  71              	.L5:
  32:Balldispenser.c ****     {
  33:Balldispenser.c ****     UART_PutString("Ball Dispensing\r\n");
  72              		.loc 1 33 0
  73 0006 0B48     		ldr	r0, .L7
  74 0008 FFF7FEFF 		bl	UART_PutString
  75              	.LVL5:
  34:Balldispenser.c ****     Rotate1802();
  76              		.loc 1 34 0
  77 000c FFF7FEFF 		bl	Rotate1802
  78              	.LVL6:
  35:Balldispenser.c ****     CyDelay(200);
  79              		.loc 1 35 0
ARM GAS  C:\Users\au576633\AppData\Local\Temp\ccYdjPbr.s 			page 3


  80 0010 C820     		movs	r0, #200
  81 0012 FFF7FEFF 		bl	CyDelay
  82              	.LVL7:
  36:Balldispenser.c ****     revRotate1802();
  83              		.loc 1 36 0
  84 0016 FFF7FEFF 		bl	revRotate1802
  85              	.LVL8:
  37:Balldispenser.c ****     CyDelay(200);
  86              		.loc 1 37 0
  87 001a C820     		movs	r0, #200
  88 001c FFF7FEFF 		bl	CyDelay
  89              	.LVL9:
  38:Balldispenser.c ****     UART_PutString("Ball Dispensed\r\n");
  90              		.loc 1 38 0
  91 0020 0548     		ldr	r0, .L7+4
  92 0022 FFF7FEFF 		bl	UART_PutString
  93              	.LVL10:
  31:Balldispenser.c ****     {
  94              		.loc 1 31 0
  95 0026 2246     		mov	r2, r4
  96              	.LVL11:
  97              	.L4:
  98 0028 531C     		adds	r3, r2, #1
  99 002a DCB2     		uxtb	r4, r3
 100              	.LVL12:
 101 002c 012A     		cmp	r2, #1
 102 002e EAD9     		bls	.L5
  39:Balldispenser.c ****     }
  40:Balldispenser.c **** }
 103              		.loc 1 40 0
 104 0030 10BD     		pop	{r4, pc}
 105              	.LVL13:
 106              	.L8:
 107 0032 00BF     		.align	2
 108              	.L7:
 109 0034 00000000 		.word	.LC0
 110 0038 14000000 		.word	.LC1
 111              		.cfi_endproc
 112              	.LFE65:
 113              		.size	DispenseBalls, .-DispenseBalls
 114              		.section	.text.UpdateStatusLEDS,"ax",%progbits
 115              		.align	2
 116              		.global	UpdateStatusLEDS
 117              		.thumb
 118              		.thumb_func
 119              		.type	UpdateStatusLEDS, %function
 120              	UpdateStatusLEDS:
 121              	.LFB67:
  41:Balldispenser.c **** 
  42:Balldispenser.c **** int countBalls()
  43:Balldispenser.c **** {
  44:Balldispenser.c ****     ADC_DelSig_1_StartConvert();
  45:Balldispenser.c ****     V_Sample = ADC_DelSig_1_GetResult16();
  46:Balldispenser.c ****     if(V_Sample>1 && V_Sample<400)
  47:Balldispenser.c ****     {
  48:Balldispenser.c ****         ball_count = 4;
  49:Balldispenser.c ****         UpdateStatusLEDS();
ARM GAS  C:\Users\au576633\AppData\Local\Temp\ccYdjPbr.s 			page 4


  50:Balldispenser.c ****         return ball_count;
  51:Balldispenser.c ****     }
  52:Balldispenser.c ****     else if(V_Sample>30000 && V_Sample<40000)
  53:Balldispenser.c ****     {
  54:Balldispenser.c ****         ball_count = 3;
  55:Balldispenser.c ****         UpdateStatusLEDS();
  56:Balldispenser.c ****         return ball_count;
  57:Balldispenser.c ****     }
  58:Balldispenser.c ****     else if(V_Sample>15000 && V_Sample<30000)
  59:Balldispenser.c ****     {
  60:Balldispenser.c ****         ball_count = 2;
  61:Balldispenser.c ****         UpdateStatusLEDS();
  62:Balldispenser.c ****         return ball_count;
  63:Balldispenser.c ****     }
  64:Balldispenser.c ****     else if(V_Sample>1000 && V_Sample<15000)
  65:Balldispenser.c ****     {
  66:Balldispenser.c ****         ball_count = 1;
  67:Balldispenser.c ****         UpdateStatusLEDS();
  68:Balldispenser.c ****         return ball_count;
  69:Balldispenser.c ****     }
  70:Balldispenser.c ****     else 
  71:Balldispenser.c ****     {
  72:Balldispenser.c ****         return ball_count;
  73:Balldispenser.c ****     }
  74:Balldispenser.c **** }
  75:Balldispenser.c **** 
  76:Balldispenser.c **** void UpdateStatusLEDS()
  77:Balldispenser.c **** {
 122              		.loc 1 77 0
 123              		.cfi_startproc
 124              		@ args = 0, pretend = 0, frame = 0
 125              		@ frame_needed = 0, uses_anonymous_args = 0
 126 0000 08B5     		push	{r3, lr}
 127              		.cfi_def_cfa_offset 8
 128              		.cfi_offset 3, -8
 129              		.cfi_offset 14, -4
  78:Balldispenser.c ****     if(ball_count==4){
 130              		.loc 1 78 0
 131 0002 0D4B     		ldr	r3, .L14
 132 0004 1B78     		ldrb	r3, [r3]	@ zero_extendqisi2
 133 0006 042B     		cmp	r3, #4
 134 0008 06D1     		bne	.L10
  79:Balldispenser.c ****         pin_full_Write(1); 
 135              		.loc 1 79 0
 136 000a 0120     		movs	r0, #1
 137 000c FFF7FEFF 		bl	pin_full_Write
 138              	.LVL14:
  80:Balldispenser.c ****         pin_empty_Write(0);
 139              		.loc 1 80 0
 140 0010 0020     		movs	r0, #0
 141 0012 FFF7FEFF 		bl	pin_empty_Write
 142              	.LVL15:
 143 0016 08BD     		pop	{r3, pc}
 144              	.L10:
  81:Balldispenser.c ****     }
  82:Balldispenser.c ****     else if(ball_count<3)
 145              		.loc 1 82 0
ARM GAS  C:\Users\au576633\AppData\Local\Temp\ccYdjPbr.s 			page 5


 146 0018 022B     		cmp	r3, #2
 147 001a 06D8     		bhi	.L12
  83:Balldispenser.c ****     {
  84:Balldispenser.c ****         pin_full_Write(0); 
 148              		.loc 1 84 0
 149 001c 0020     		movs	r0, #0
 150 001e FFF7FEFF 		bl	pin_full_Write
 151              	.LVL16:
  85:Balldispenser.c ****         pin_empty_Write(1);
 152              		.loc 1 85 0
 153 0022 0120     		movs	r0, #1
 154 0024 FFF7FEFF 		bl	pin_empty_Write
 155              	.LVL17:
 156 0028 08BD     		pop	{r3, pc}
 157              	.L12:
  86:Balldispenser.c ****     }
  87:Balldispenser.c ****     else 
  88:Balldispenser.c ****     {
  89:Balldispenser.c ****         pin_empty_Write(0);
 158              		.loc 1 89 0
 159 002a 0020     		movs	r0, #0
 160 002c FFF7FEFF 		bl	pin_empty_Write
 161              	.LVL18:
  90:Balldispenser.c ****         pin_full_Write(0);
 162              		.loc 1 90 0
 163 0030 0020     		movs	r0, #0
 164 0032 FFF7FEFF 		bl	pin_full_Write
 165              	.LVL19:
 166 0036 08BD     		pop	{r3, pc}
 167              	.L15:
 168              		.align	2
 169              	.L14:
 170 0038 00000000 		.word	.LANCHOR0
 171              		.cfi_endproc
 172              	.LFE67:
 173              		.size	UpdateStatusLEDS, .-UpdateStatusLEDS
 174              		.section	.text.countBalls,"ax",%progbits
 175              		.align	2
 176              		.global	countBalls
 177              		.thumb
 178              		.thumb_func
 179              		.type	countBalls, %function
 180              	countBalls:
 181              	.LFB66:
  43:Balldispenser.c ****     ADC_DelSig_1_StartConvert();
 182              		.loc 1 43 0
 183              		.cfi_startproc
 184              		@ args = 0, pretend = 0, frame = 0
 185              		@ frame_needed = 0, uses_anonymous_args = 0
 186 0000 10B5     		push	{r4, lr}
 187              		.cfi_def_cfa_offset 8
 188              		.cfi_offset 4, -8
 189              		.cfi_offset 14, -4
  44:Balldispenser.c ****     V_Sample = ADC_DelSig_1_GetResult16();
 190              		.loc 1 44 0
 191 0002 FFF7FEFF 		bl	ADC_DelSig_1_StartConvert
 192              	.LVL20:
ARM GAS  C:\Users\au576633\AppData\Local\Temp\ccYdjPbr.s 			page 6


  45:Balldispenser.c ****     if(V_Sample>1 && V_Sample<400)
 193              		.loc 1 45 0
 194 0006 FFF7FEFF 		bl	ADC_DelSig_1_GetResult16
 195              	.LVL21:
 196 000a 80B2     		uxth	r0, r0
  46:Balldispenser.c ****     {
 197              		.loc 1 46 0
 198 000c 831E     		subs	r3, r0, #2
 199 000e 9BB2     		uxth	r3, r3
 200 0010 B3F5C77F 		cmp	r3, #398
 201 0014 06D2     		bcs	.L17
  48:Balldispenser.c ****         UpdateStatusLEDS();
 202              		.loc 1 48 0
 203 0016 1B4C     		ldr	r4, .L23
 204 0018 0423     		movs	r3, #4
 205 001a 2370     		strb	r3, [r4]
  49:Balldispenser.c ****         return ball_count;
 206              		.loc 1 49 0
 207 001c FFF7FEFF 		bl	UpdateStatusLEDS
 208              	.LVL22:
  50:Balldispenser.c ****     }
 209              		.loc 1 50 0
 210 0020 2078     		ldrb	r0, [r4]	@ zero_extendqisi2
 211 0022 10BD     		pop	{r4, pc}
 212              	.L17:
  52:Balldispenser.c ****     {
 213              		.loc 1 52 0
 214 0024 A0F5EA43 		sub	r3, r0, #29952
 215 0028 313B     		subs	r3, r3, #49
 216 002a 9BB2     		uxth	r3, r3
 217 002c 42F20E72 		movw	r2, #9998
 218 0030 9342     		cmp	r3, r2
 219 0032 06D8     		bhi	.L19
  54:Balldispenser.c ****         UpdateStatusLEDS();
 220              		.loc 1 54 0
 221 0034 134C     		ldr	r4, .L23
 222 0036 0323     		movs	r3, #3
 223 0038 2370     		strb	r3, [r4]
  55:Balldispenser.c ****         return ball_count;
 224              		.loc 1 55 0
 225 003a FFF7FEFF 		bl	UpdateStatusLEDS
 226              	.LVL23:
  56:Balldispenser.c ****     }
 227              		.loc 1 56 0
 228 003e 2078     		ldrb	r0, [r4]	@ zero_extendqisi2
 229 0040 10BD     		pop	{r4, pc}
 230              	.L19:
  58:Balldispenser.c ****     {
 231              		.loc 1 58 0
 232 0042 A0F56A53 		sub	r3, r0, #14976
 233 0046 193B     		subs	r3, r3, #25
 234 0048 9BB2     		uxth	r3, r3
 235 004a 43F69622 		movw	r2, #14998
 236 004e 9342     		cmp	r3, r2
 237 0050 06D8     		bhi	.L20
  60:Balldispenser.c ****         UpdateStatusLEDS();
 238              		.loc 1 60 0
ARM GAS  C:\Users\au576633\AppData\Local\Temp\ccYdjPbr.s 			page 7


 239 0052 0C4C     		ldr	r4, .L23
 240 0054 0223     		movs	r3, #2
 241 0056 2370     		strb	r3, [r4]
  61:Balldispenser.c ****         return ball_count;
 242              		.loc 1 61 0
 243 0058 FFF7FEFF 		bl	UpdateStatusLEDS
 244              	.LVL24:
  62:Balldispenser.c ****     }
 245              		.loc 1 62 0
 246 005c 2078     		ldrb	r0, [r4]	@ zero_extendqisi2
 247 005e 10BD     		pop	{r4, pc}
 248              	.L20:
  64:Balldispenser.c ****     {
 249              		.loc 1 64 0
 250 0060 A0F2E930 		subw	r0, r0, #1001
 251 0064 80B2     		uxth	r0, r0
 252 0066 43F2AE63 		movw	r3, #13998
 253 006a 9842     		cmp	r0, r3
 254 006c 06D8     		bhi	.L21
  66:Balldispenser.c ****         UpdateStatusLEDS();
 255              		.loc 1 66 0
 256 006e 054C     		ldr	r4, .L23
 257 0070 0123     		movs	r3, #1
 258 0072 2370     		strb	r3, [r4]
  67:Balldispenser.c ****         return ball_count;
 259              		.loc 1 67 0
 260 0074 FFF7FEFF 		bl	UpdateStatusLEDS
 261              	.LVL25:
  68:Balldispenser.c ****     }
 262              		.loc 1 68 0
 263 0078 2078     		ldrb	r0, [r4]	@ zero_extendqisi2
 264 007a 10BD     		pop	{r4, pc}
 265              	.L21:
  72:Balldispenser.c ****     }
 266              		.loc 1 72 0
 267 007c 014B     		ldr	r3, .L23
 268 007e 1878     		ldrb	r0, [r3]	@ zero_extendqisi2
  74:Balldispenser.c **** 
 269              		.loc 1 74 0
 270 0080 10BD     		pop	{r4, pc}
 271              	.L24:
 272 0082 00BF     		.align	2
 273              	.L23:
 274 0084 00000000 		.word	.LANCHOR0
 275              		.cfi_endproc
 276              	.LFE66:
 277              		.size	countBalls, .-countBalls
 278              		.section	.rodata.str1.4,"aMS",%progbits,1
 279              		.align	2
 280              	.LC0:
 281 0000 42616C6C 		.ascii	"Ball Dispensing\015\012\000"
 281      20446973 
 281      70656E73 
 281      696E670D 
 281      0A00
 282 0012 0000     		.space	2
 283              	.LC1:
ARM GAS  C:\Users\au576633\AppData\Local\Temp\ccYdjPbr.s 			page 8


 284 0014 42616C6C 		.ascii	"Ball Dispensed\015\012\000"
 284      20446973 
 284      70656E73 
 284      65640D0A 
 284      00
 285              		.bss
 286              		.set	.LANCHOR0,. + 0
 287              		.type	ball_count, %object
 288              		.size	ball_count, 1
 289              	ball_count:
 290 0000 00       		.space	1
 291              		.text
 292              	.Letext0:
 293              		.file 2 "c:\\program files (x86)\\cypress\\psoc creator\\4.2\\psoc creator\\import\\gnu\\arm\\5.4.
 294              		.file 3 "c:\\program files (x86)\\cypress\\psoc creator\\4.2\\psoc creator\\import\\gnu\\arm\\5.4.
 295              		.file 4 "Generated_Source\\PSoC5/cytypes.h"
 296              		.file 5 "Generated_Source\\PSoC5/PWM_1.h"
 297              		.file 6 "Generated_Source\\PSoC5/Sample_Hold_1.h"
 298              		.file 7 "Generated_Source\\PSoC5/ADC_DelSig_1.h"
 299              		.file 8 "Generated_Source\\PSoC5/UART.h"
 300              		.file 9 "MotorControl.h"
 301              		.file 10 "Generated_Source\\PSoC5/CyLib.h"
 302              		.file 11 "Generated_Source\\PSoC5/pin_full.h"
 303              		.file 12 "Generated_Source\\PSoC5/pin_empty.h"
 304              		.file 13 "Generated_Source\\PSoC5/core_cm3.h"