ARM GAS  C:\Users\au576633\AppData\Local\Temp\ccXiz9QD.s 			page 1


   1              		.syntax unified
   2              		.cpu cortex-m3
   3              		.fpu softvfp
   4              		.eabi_attribute 20, 1
   5              		.eabi_attribute 21, 1
   6              		.eabi_attribute 23, 3
   7              		.eabi_attribute 24, 1
   8              		.eabi_attribute 25, 1
   9              		.eabi_attribute 26, 1
  10              		.eabi_attribute 30, 1
  11              		.eabi_attribute 34, 1
  12              		.eabi_attribute 18, 4
  13              		.thumb
  14              		.syntax unified
  15              		.file	"MotorControl.c"
  16              		.text
  17              	.Ltext0:
  18              		.cfi_sections	.debug_frame
  19              		.section	.text.Motor_Timer_I_handler,"ax",%progbits
  20              		.align	2
  21              		.global	Motor_Timer_I_handler
  22              		.thumb
  23              		.thumb_func
  24              		.type	Motor_Timer_I_handler, %function
  25              	Motor_Timer_I_handler:
  26              	.LFB64:
  27              		.file 1 "MotorControl.c"
   1:MotorControl.c **** #include "MotorControl.h"
   2:MotorControl.c **** 
   3:MotorControl.c **** #define STEPSLEEP 5
   4:MotorControl.c **** 
   5:MotorControl.c **** int stepCount = 0;
   6:MotorControl.c **** int steppingMode = 0;
   7:MotorControl.c **** bool readyForNextStep = false;
   8:MotorControl.c **** int nextStep = 0;
   9:MotorControl.c **** 
  10:MotorControl.c **** int stepCount2 = 0;
  11:MotorControl.c **** int steppingMode2 = 0;
  12:MotorControl.c **** bool readyForNextStep2 = false;
  13:MotorControl.c **** int nextStep2 = 0;
  14:MotorControl.c **** 
  15:MotorControl.c **** 
  16:MotorControl.c **** /*******************************************************************************
  17:MotorControl.c **** * Function Name: initMotorControl
  18:MotorControl.c **** ********************************************************************************
  19:MotorControl.c **** *
  20:MotorControl.c **** * Summary:    This function initialises the timer that is used to control the 
  21:MotorControl.c ****               motor speed. It also i initialises the interrupt receved from 
  22:MotorControl.c ****               said timer.
  23:MotorControl.c **** *
  24:MotorControl.c **** * Parameters:
  25:MotorControl.c **** *  None.
  26:MotorControl.c **** *
  27:MotorControl.c **** * Return:
  28:MotorControl.c **** *  None.
  29:MotorControl.c **** *
  30:MotorControl.c **** *******************************************************************************/
ARM GAS  C:\Users\au576633\AppData\Local\Temp\ccXiz9QD.s 			page 2


  31:MotorControl.c **** void initMotorControl()
  32:MotorControl.c **** {
  33:MotorControl.c ****     Motor_Timer_Start();
  34:MotorControl.c ****     isr_timer_StartEx(Motor_Timer_I_handler);
  35:MotorControl.c ****     isr_timer_Enable();
  36:MotorControl.c **** };
  37:MotorControl.c **** 
  38:MotorControl.c **** 
  39:MotorControl.c **** 
  40:MotorControl.c **** /*******************************************************************************
  41:MotorControl.c **** * Function Name: CY_ISR
  42:MotorControl.c **** ********************************************************************************
  43:MotorControl.c **** *
  44:MotorControl.c **** * Summary:    This function is the default ISR handeler for the timer ISR.
  45:MotorControl.c ****               It sets the readyForNextStep boolian to true which allows the 
  46:MotorControl.c ****               motor to take the next step.
  47:MotorControl.c **** *
  48:MotorControl.c **** * Parameters:
  49:MotorControl.c **** *  ISR_detection_handler spesifies which interrupt to handle
  50:MotorControl.c **** *
  51:MotorControl.c **** *******************************************************************************/
  52:MotorControl.c **** CY_ISR(Motor_Timer_I_handler)
  53:MotorControl.c **** {
  28              		.loc 1 53 0
  29              		.cfi_startproc
  30              		@ args = 0, pretend = 0, frame = 0
  31              		@ frame_needed = 0, uses_anonymous_args = 0
  32              		@ link register save eliminated.
  54:MotorControl.c ****     readyForNextStep = true;
  33              		.loc 1 54 0
  34 0000 024B     		ldr	r3, .L2
  35 0002 0122     		movs	r2, #1
  36 0004 1A70     		strb	r2, [r3]
  55:MotorControl.c ****     readyForNextStep2 = true;
  37              		.loc 1 55 0
  38 0006 5A70     		strb	r2, [r3, #1]
  39 0008 7047     		bx	lr
  40              	.L3:
  41 000a 00BF     		.align	2
  42              	.L2:
  43 000c 00000000 		.word	.LANCHOR0
  44              		.cfi_endproc
  45              	.LFE64:
  46              		.size	Motor_Timer_I_handler, .-Motor_Timer_I_handler
  47              		.section	.text.initMotorControl,"ax",%progbits
  48              		.align	2
  49              		.global	initMotorControl
  50              		.thumb
  51              		.thumb_func
  52              		.type	initMotorControl, %function
  53              	initMotorControl:
  54              	.LFB63:
  32:MotorControl.c ****     Motor_Timer_Start();
  55              		.loc 1 32 0
  56              		.cfi_startproc
  57              		@ args = 0, pretend = 0, frame = 0
  58              		@ frame_needed = 0, uses_anonymous_args = 0
ARM GAS  C:\Users\au576633\AppData\Local\Temp\ccXiz9QD.s 			page 3


  59 0000 08B5     		push	{r3, lr}
  60              		.cfi_def_cfa_offset 8
  61              		.cfi_offset 3, -8
  62              		.cfi_offset 14, -4
  33:MotorControl.c ****     isr_timer_StartEx(Motor_Timer_I_handler);
  63              		.loc 1 33 0
  64 0002 FFF7FEFF 		bl	Motor_Timer_Start
  65              	.LVL0:
  34:MotorControl.c ****     isr_timer_Enable();
  66              		.loc 1 34 0
  67 0006 0348     		ldr	r0, .L6
  68 0008 FFF7FEFF 		bl	isr_timer_StartEx
  69              	.LVL1:
  35:MotorControl.c **** };
  70              		.loc 1 35 0
  71 000c FFF7FEFF 		bl	isr_timer_Enable
  72              	.LVL2:
  73 0010 08BD     		pop	{r3, pc}
  74              	.L7:
  75 0012 00BF     		.align	2
  76              	.L6:
  77 0014 00000000 		.word	Motor_Timer_I_handler
  78              		.cfi_endproc
  79              	.LFE63:
  80              		.size	initMotorControl, .-initMotorControl
  81              		.section	.text.step,"ax",%progbits
  82              		.align	2
  83              		.global	step
  84              		.thumb
  85              		.thumb_func
  86              		.type	step, %function
  87              	step:
  88              	.LFB65:
  56:MotorControl.c **** }
  57:MotorControl.c **** 
  58:MotorControl.c ****         
  59:MotorControl.c **** 
  60:MotorControl.c **** /*******************************************************************************
  61:MotorControl.c **** * Function Name: step
  62:MotorControl.c **** ********************************************************************************
  63:MotorControl.c **** *
  64:MotorControl.c **** * Summary:    This function is the main control function for the motor.
  65:MotorControl.c ****               It uses a control register to control a stepper motor in the full 
  66:MotorControl.c ****               drive mode. The motor can run in both directions depending on the 
  67:MotorControl.c ****               input.
  68:MotorControl.c ****               It reads the nextStep variable then goes to that part of the
  69:MotorControl.c ****               switch and sets the control register to the appropriate state then 
  70:MotorControl.c ****               changes the nextStep to the next appropriate step.
  71:MotorControl.c **** *
  72:MotorControl.c **** * Parameters:
  73:MotorControl.c **** *     mode:   Controls the motors direction.
  74:MotorControl.c **** *
  75:MotorControl.c **** * Return:
  76:MotorControl.c **** *  None.
  77:MotorControl.c **** *
  78:MotorControl.c **** *******************************************************************************/
  79:MotorControl.c **** void step(int mode)
ARM GAS  C:\Users\au576633\AppData\Local\Temp\ccXiz9QD.s 			page 4


  80:MotorControl.c **** {
  89              		.loc 1 80 0
  90              		.cfi_startproc
  91              		@ args = 0, pretend = 0, frame = 0
  92              		@ frame_needed = 0, uses_anonymous_args = 0
  93              	.LVL3:
  94 0000 10B5     		push	{r4, lr}
  95              		.cfi_def_cfa_offset 8
  96              		.cfi_offset 4, -8
  97              		.cfi_offset 14, -4
  98 0002 0446     		mov	r4, r0
  81:MotorControl.c **** 
  82:MotorControl.c ****     switch (nextStep)
  99              		.loc 1 82 0
 100 0004 1A4B     		ldr	r3, .L18
 101 0006 5B68     		ldr	r3, [r3, #4]
 102 0008 032B     		cmp	r3, #3
 103 000a 2FD8     		bhi	.L8
 104 000c DFE803F0 		tbb	[pc, r3]
 105              	.L11:
 106 0010 02       		.byte	(.L10-.L11)/2
 107 0011 11       		.byte	(.L12-.L11)/2
 108 0012 19       		.byte	(.L13-.L11)/2
 109 0013 21       		.byte	(.L14-.L11)/2
 110              		.p2align 1
 111              	.L10:
  83:MotorControl.c ****     {
  84:MotorControl.c ****         case 0 :
  85:MotorControl.c ****         {
  86:MotorControl.c ****             Motor_Reg_1_Write(0b0011);
 112              		.loc 1 86 0
 113 0014 0320     		movs	r0, #3
 114              	.LVL4:
 115 0016 FFF7FEFF 		bl	Motor_Reg_1_Write
 116              	.LVL5:
  87:MotorControl.c ****             if(mode == -1)
 117              		.loc 1 87 0
 118 001a B4F1FF3F 		cmp	r4, #-1
 119 001e 03D1     		bne	.L15
  88:MotorControl.c ****             {
  89:MotorControl.c ****                 nextStep = 3;
 120              		.loc 1 89 0
 121 0020 0322     		movs	r2, #3
 122 0022 134B     		ldr	r3, .L18
 123 0024 5A60     		str	r2, [r3, #4]
 124 0026 10BD     		pop	{r4, pc}
 125              	.LVL6:
 126              	.L15:
  90:MotorControl.c ****             }
  91:MotorControl.c ****             else
  92:MotorControl.c ****             {
  93:MotorControl.c ****                 nextStep += mode;
 127              		.loc 1 93 0
 128 0028 114A     		ldr	r2, .L18
 129 002a 5368     		ldr	r3, [r2, #4]
 130 002c 1C44     		add	r4, r4, r3
 131              	.LVL7:
ARM GAS  C:\Users\au576633\AppData\Local\Temp\ccXiz9QD.s 			page 5


 132 002e 5460     		str	r4, [r2, #4]
 133 0030 10BD     		pop	{r4, pc}
 134              	.LVL8:
 135              	.L12:
  94:MotorControl.c ****             }
  95:MotorControl.c ****         }
  96:MotorControl.c ****             break;
  97:MotorControl.c ****         case 1 :
  98:MotorControl.c ****         {
  99:MotorControl.c ****             Motor_Reg_1_Write(0b0110);
 136              		.loc 1 99 0
 137 0032 0620     		movs	r0, #6
 138              	.LVL9:
 139 0034 FFF7FEFF 		bl	Motor_Reg_1_Write
 140              	.LVL10:
 100:MotorControl.c ****             nextStep += mode;
 141              		.loc 1 100 0
 142 0038 0D4A     		ldr	r2, .L18
 143 003a 5368     		ldr	r3, [r2, #4]
 144 003c 1C44     		add	r4, r4, r3
 145              	.LVL11:
 146 003e 5460     		str	r4, [r2, #4]
 101:MotorControl.c ****         }
 102:MotorControl.c ****             break;
 147              		.loc 1 102 0
 148 0040 10BD     		pop	{r4, pc}
 149              	.LVL12:
 150              	.L13:
 103:MotorControl.c ****         case 2 :
 104:MotorControl.c ****         {
 105:MotorControl.c ****             Motor_Reg_1_Write(0b1100);
 151              		.loc 1 105 0
 152 0042 0C20     		movs	r0, #12
 153              	.LVL13:
 154 0044 FFF7FEFF 		bl	Motor_Reg_1_Write
 155              	.LVL14:
 106:MotorControl.c ****             nextStep += mode;
 156              		.loc 1 106 0
 157 0048 094A     		ldr	r2, .L18
 158 004a 5368     		ldr	r3, [r2, #4]
 159 004c 1C44     		add	r4, r4, r3
 160              	.LVL15:
 161 004e 5460     		str	r4, [r2, #4]
 107:MotorControl.c ****         }
 108:MotorControl.c ****             break;
 162              		.loc 1 108 0
 163 0050 10BD     		pop	{r4, pc}
 164              	.LVL16:
 165              	.L14:
 109:MotorControl.c ****         case 3 :
 110:MotorControl.c ****         {
 111:MotorControl.c ****             Motor_Reg_1_Write(0b1001);
 166              		.loc 1 111 0
 167 0052 0920     		movs	r0, #9
 168              	.LVL17:
 169 0054 FFF7FEFF 		bl	Motor_Reg_1_Write
 170              	.LVL18:
ARM GAS  C:\Users\au576633\AppData\Local\Temp\ccXiz9QD.s 			page 6


 112:MotorControl.c ****             if(mode == 1)
 171              		.loc 1 112 0
 172 0058 012C     		cmp	r4, #1
 173 005a 03D1     		bne	.L16
 113:MotorControl.c ****             {
 114:MotorControl.c ****                 nextStep = 0;
 174              		.loc 1 114 0
 175 005c 0022     		movs	r2, #0
 176 005e 044B     		ldr	r3, .L18
 177 0060 5A60     		str	r2, [r3, #4]
 178 0062 10BD     		pop	{r4, pc}
 179              	.LVL19:
 180              	.L16:
 115:MotorControl.c ****             }
 116:MotorControl.c ****             else
 117:MotorControl.c ****             {
 118:MotorControl.c ****                 nextStep += mode;
 181              		.loc 1 118 0
 182 0064 024B     		ldr	r3, .L18
 183 0066 5A68     		ldr	r2, [r3, #4]
 184 0068 1444     		add	r4, r4, r2
 185              	.LVL20:
 186 006a 5C60     		str	r4, [r3, #4]
 187              	.L8:
 188 006c 10BD     		pop	{r4, pc}
 189              	.L19:
 190 006e 00BF     		.align	2
 191              	.L18:
 192 0070 00000000 		.word	.LANCHOR0
 193              		.cfi_endproc
 194              	.LFE65:
 195              		.size	step, .-step
 196              		.section	.text.Rotate90,"ax",%progbits
 197              		.align	2
 198              		.global	Rotate90
 199              		.thumb
 200              		.thumb_func
 201              		.type	Rotate90, %function
 202              	Rotate90:
 203              	.LFB66:
 119:MotorControl.c ****             }
 120:MotorControl.c ****         }
 121:MotorControl.c ****             break;
 122:MotorControl.c ****     }
 123:MotorControl.c **** }
 124:MotorControl.c **** 
 125:MotorControl.c **** 
 126:MotorControl.c **** 
 127:MotorControl.c **** /*******************************************************************************
 128:MotorControl.c **** * Function Name: rotate90
 129:MotorControl.c **** ********************************************************************************
 130:MotorControl.c **** *
 131:MotorControl.c **** * Summary:    This function makes the motor rotate 90 clockwise degrees.
 132:MotorControl.c ****               It waits for the readyForNextStep to become true then calls the 
 133:MotorControl.c ****               step function in forward mode. It then sets the readyForNextStep 
 134:MotorControl.c ****               to not true and loops again.
 135:MotorControl.c **** *
ARM GAS  C:\Users\au576633\AppData\Local\Temp\ccXiz9QD.s 			page 7


 136:MotorControl.c **** * Parameters:
 137:MotorControl.c **** *  None.
 138:MotorControl.c **** *
 139:MotorControl.c **** * Return:
 140:MotorControl.c **** *  None.
 141:MotorControl.c **** *
 142:MotorControl.c **** *******************************************************************************/
 143:MotorControl.c **** void Rotate90()
 144:MotorControl.c **** {
 204              		.loc 1 144 0
 205              		.cfi_startproc
 206              		@ args = 0, pretend = 0, frame = 0
 207              		@ frame_needed = 0, uses_anonymous_args = 0
 208 0000 10B5     		push	{r4, lr}
 209              		.cfi_def_cfa_offset 8
 210              		.cfi_offset 4, -8
 211              		.cfi_offset 14, -4
 145:MotorControl.c ****     UART_PutString("Forward\r\n");
 212              		.loc 1 145 0
 213 0002 0B48     		ldr	r0, .L24
 214 0004 FFF7FEFF 		bl	UART_PutString
 215              	.LVL21:
 146:MotorControl.c ****     int x = 0;
 216              		.loc 1 146 0
 217 0008 0024     		movs	r4, #0
 147:MotorControl.c ****     while(x < 512)
 218              		.loc 1 147 0
 219 000a 0DE0     		b	.L21
 220              	.LVL22:
 221              	.L22:
 148:MotorControl.c ****     {
 149:MotorControl.c ****         while(!readyForNextStep)
 222              		.loc 1 149 0 discriminator 1
 223 000c 094B     		ldr	r3, .L24+4
 224 000e 1B78     		ldrb	r3, [r3]	@ zero_extendqisi2
 225 0010 002B     		cmp	r3, #0
 226 0012 FBD0     		beq	.L22
 150:MotorControl.c ****         {
 151:MotorControl.c ****         };
 152:MotorControl.c ****         step(Forward);
 227              		.loc 1 152 0
 228 0014 0120     		movs	r0, #1
 229 0016 FFF7FEFF 		bl	step
 230              	.LVL23:
 153:MotorControl.c ****         CyDelay(STEPSLEEP);
 231              		.loc 1 153 0
 232 001a 0520     		movs	r0, #5
 233 001c FFF7FEFF 		bl	CyDelay
 234              	.LVL24:
 154:MotorControl.c ****         //UART_PutString("Step\r\n");
 155:MotorControl.c ****         readyForNextStep = false;
 235              		.loc 1 155 0
 236 0020 0022     		movs	r2, #0
 237 0022 044B     		ldr	r3, .L24+4
 238 0024 1A70     		strb	r2, [r3]
 156:MotorControl.c ****         x++;
 239              		.loc 1 156 0
ARM GAS  C:\Users\au576633\AppData\Local\Temp\ccXiz9QD.s 			page 8


 240 0026 0134     		adds	r4, r4, #1
 241              	.LVL25:
 242              	.L21:
 147:MotorControl.c ****     {
 243              		.loc 1 147 0
 244 0028 B4F5007F 		cmp	r4, #512
 245 002c EEDB     		blt	.L22
 157:MotorControl.c ****     }
 158:MotorControl.c **** };
 246              		.loc 1 158 0
 247 002e 10BD     		pop	{r4, pc}
 248              	.LVL26:
 249              	.L25:
 250              		.align	2
 251              	.L24:
 252 0030 00000000 		.word	.LC0
 253 0034 00000000 		.word	.LANCHOR0
 254              		.cfi_endproc
 255              	.LFE66:
 256              		.size	Rotate90, .-Rotate90
 257              		.section	.text.Rotate180,"ax",%progbits
 258              		.align	2
 259              		.global	Rotate180
 260              		.thumb
 261              		.thumb_func
 262              		.type	Rotate180, %function
 263              	Rotate180:
 264              	.LFB67:
 159:MotorControl.c **** 
 160:MotorControl.c **** 
 161:MotorControl.c **** 
 162:MotorControl.c **** /*******************************************************************************
 163:MotorControl.c **** * Function Name: Rotate180
 164:MotorControl.c **** ********************************************************************************
 165:MotorControl.c **** *
 166:MotorControl.c **** * Summary:    This function totates the motor 180 clockwise degrees and works 
 167:MotorControl.c ****               the same way as rotate90
 168:MotorControl.c **** *
 169:MotorControl.c **** * Parameters:
 170:MotorControl.c **** *  None.
 171:MotorControl.c **** *
 172:MotorControl.c **** * Return:
 173:MotorControl.c **** *  None.
 174:MotorControl.c **** *
 175:MotorControl.c **** *******************************************************************************/
 176:MotorControl.c **** void Rotate180()
 177:MotorControl.c **** {
 265              		.loc 1 177 0
 266              		.cfi_startproc
 267              		@ args = 0, pretend = 0, frame = 0
 268              		@ frame_needed = 0, uses_anonymous_args = 0
 269 0000 10B5     		push	{r4, lr}
 270              		.cfi_def_cfa_offset 8
 271              		.cfi_offset 4, -8
 272              		.cfi_offset 14, -4
 273              	.LVL27:
 178:MotorControl.c ****     int x = 0;
ARM GAS  C:\Users\au576633\AppData\Local\Temp\ccXiz9QD.s 			page 9


 274              		.loc 1 178 0
 275 0002 0024     		movs	r4, #0
 179:MotorControl.c ****     while(x < 1024)
 276              		.loc 1 179 0
 277 0004 0DE0     		b	.L27
 278              	.LVL28:
 279              	.L28:
 180:MotorControl.c ****     {
 181:MotorControl.c ****         while(!readyForNextStep)
 280              		.loc 1 181 0 discriminator 1
 281 0006 094B     		ldr	r3, .L30
 282 0008 1B78     		ldrb	r3, [r3]	@ zero_extendqisi2
 283 000a 002B     		cmp	r3, #0
 284 000c FBD0     		beq	.L28
 182:MotorControl.c ****         {
 183:MotorControl.c ****         };
 184:MotorControl.c ****         step(Forward);
 285              		.loc 1 184 0
 286 000e 0120     		movs	r0, #1
 287 0010 FFF7FEFF 		bl	step
 288              	.LVL29:
 185:MotorControl.c ****         CyDelay(STEPSLEEP);
 289              		.loc 1 185 0
 290 0014 0520     		movs	r0, #5
 291 0016 FFF7FEFF 		bl	CyDelay
 292              	.LVL30:
 186:MotorControl.c ****         //UART_PutString("Step\r\n");
 187:MotorControl.c ****         readyForNextStep = false;
 293              		.loc 1 187 0
 294 001a 0022     		movs	r2, #0
 295 001c 034B     		ldr	r3, .L30
 296 001e 1A70     		strb	r2, [r3]
 188:MotorControl.c ****         x++;
 297              		.loc 1 188 0
 298 0020 0134     		adds	r4, r4, #1
 299              	.LVL31:
 300              	.L27:
 179:MotorControl.c ****     {
 301              		.loc 1 179 0
 302 0022 B4F5806F 		cmp	r4, #1024
 303 0026 EEDB     		blt	.L28
 189:MotorControl.c ****     }
 190:MotorControl.c **** };
 304              		.loc 1 190 0
 305 0028 10BD     		pop	{r4, pc}
 306              	.LVL32:
 307              	.L31:
 308 002a 00BF     		.align	2
 309              	.L30:
 310 002c 00000000 		.word	.LANCHOR0
 311              		.cfi_endproc
 312              	.LFE67:
 313              		.size	Rotate180, .-Rotate180
 314              		.section	.text.revRotate90,"ax",%progbits
 315              		.align	2
 316              		.global	revRotate90
 317              		.thumb
ARM GAS  C:\Users\au576633\AppData\Local\Temp\ccXiz9QD.s 			page 10


 318              		.thumb_func
 319              		.type	revRotate90, %function
 320              	revRotate90:
 321              	.LFB68:
 191:MotorControl.c **** 
 192:MotorControl.c **** 
 193:MotorControl.c **** 
 194:MotorControl.c **** /*******************************************************************************
 195:MotorControl.c **** * Function Name: revRotate90
 196:MotorControl.c **** ********************************************************************************
 197:MotorControl.c **** *
 198:MotorControl.c **** * Summary:    This function totates the motor 90 counter clockwise degrees and works 
 199:MotorControl.c ****               the same way as rotate90
 200:MotorControl.c **** *
 201:MotorControl.c **** * Parameters:
 202:MotorControl.c **** *  None.
 203:MotorControl.c **** *
 204:MotorControl.c **** * Return:
 205:MotorControl.c **** *  None.
 206:MotorControl.c **** *
 207:MotorControl.c **** *******************************************************************************/
 208:MotorControl.c **** void revRotate90()
 209:MotorControl.c **** {
 322              		.loc 1 209 0
 323              		.cfi_startproc
 324              		@ args = 0, pretend = 0, frame = 0
 325              		@ frame_needed = 0, uses_anonymous_args = 0
 326 0000 10B5     		push	{r4, lr}
 327              		.cfi_def_cfa_offset 8
 328              		.cfi_offset 4, -8
 329              		.cfi_offset 14, -4
 330              	.LVL33:
 210:MotorControl.c ****     int x = 0;
 211:MotorControl.c ****     UART_PutString("Rev\r\n");
 331              		.loc 1 211 0
 332 0002 0C48     		ldr	r0, .L36
 333 0004 FFF7FEFF 		bl	UART_PutString
 334              	.LVL34:
 210:MotorControl.c ****     int x = 0;
 335              		.loc 1 210 0
 336 0008 0024     		movs	r4, #0
 212:MotorControl.c ****     while(x < 512)
 337              		.loc 1 212 0
 338 000a 0EE0     		b	.L33
 339              	.LVL35:
 340              	.L34:
 213:MotorControl.c ****     {
 214:MotorControl.c ****         while(!readyForNextStep)
 341              		.loc 1 214 0 discriminator 1
 342 000c 0A4B     		ldr	r3, .L36+4
 343 000e 1B78     		ldrb	r3, [r3]	@ zero_extendqisi2
 344 0010 002B     		cmp	r3, #0
 345 0012 FBD0     		beq	.L34
 215:MotorControl.c ****         {
 216:MotorControl.c ****         };
 217:MotorControl.c ****         step(Backward);
 346              		.loc 1 217 0
ARM GAS  C:\Users\au576633\AppData\Local\Temp\ccXiz9QD.s 			page 11


 347 0014 4FF0FF30 		mov	r0, #-1
 348 0018 FFF7FEFF 		bl	step
 349              	.LVL36:
 218:MotorControl.c ****         CyDelay(STEPSLEEP);
 350              		.loc 1 218 0
 351 001c 0520     		movs	r0, #5
 352 001e FFF7FEFF 		bl	CyDelay
 353              	.LVL37:
 219:MotorControl.c ****         //UART_PutString("Step\r\n");
 220:MotorControl.c ****         readyForNextStep = false;
 354              		.loc 1 220 0
 355 0022 0022     		movs	r2, #0
 356 0024 044B     		ldr	r3, .L36+4
 357 0026 1A70     		strb	r2, [r3]
 221:MotorControl.c ****         x++;
 358              		.loc 1 221 0
 359 0028 0134     		adds	r4, r4, #1
 360              	.LVL38:
 361              	.L33:
 212:MotorControl.c ****     {
 362              		.loc 1 212 0
 363 002a B4F5007F 		cmp	r4, #512
 364 002e EDDB     		blt	.L34
 222:MotorControl.c ****     }
 223:MotorControl.c **** };
 365              		.loc 1 223 0
 366 0030 10BD     		pop	{r4, pc}
 367              	.LVL39:
 368              	.L37:
 369 0032 00BF     		.align	2
 370              	.L36:
 371 0034 0C000000 		.word	.LC1
 372 0038 00000000 		.word	.LANCHOR0
 373              		.cfi_endproc
 374              	.LFE68:
 375              		.size	revRotate90, .-revRotate90
 376              		.section	.text.revRotate180,"ax",%progbits
 377              		.align	2
 378              		.global	revRotate180
 379              		.thumb
 380              		.thumb_func
 381              		.type	revRotate180, %function
 382              	revRotate180:
 383              	.LFB69:
 224:MotorControl.c **** 
 225:MotorControl.c **** 
 226:MotorControl.c **** 
 227:MotorControl.c **** /*******************************************************************************
 228:MotorControl.c **** * Function Name: revRotate180
 229:MotorControl.c **** ********************************************************************************
 230:MotorControl.c **** *
 231:MotorControl.c **** * Summary:    This function totates the motor 180 counter clockwise degrees and works 
 232:MotorControl.c ****               the same way as rotate90
 233:MotorControl.c **** *
 234:MotorControl.c **** * Parameters:
 235:MotorControl.c **** *  None.
 236:MotorControl.c **** *
ARM GAS  C:\Users\au576633\AppData\Local\Temp\ccXiz9QD.s 			page 12


 237:MotorControl.c **** * Return:
 238:MotorControl.c **** *  None.
 239:MotorControl.c **** *
 240:MotorControl.c **** *******************************************************************************/
 241:MotorControl.c **** void revRotate180()
 242:MotorControl.c **** {
 384              		.loc 1 242 0
 385              		.cfi_startproc
 386              		@ args = 0, pretend = 0, frame = 0
 387              		@ frame_needed = 0, uses_anonymous_args = 0
 388 0000 10B5     		push	{r4, lr}
 389              		.cfi_def_cfa_offset 8
 390              		.cfi_offset 4, -8
 391              		.cfi_offset 14, -4
 392              	.LVL40:
 243:MotorControl.c ****     int x = 0;
 393              		.loc 1 243 0
 394 0002 0024     		movs	r4, #0
 244:MotorControl.c ****     while(x < 1024)
 395              		.loc 1 244 0
 396 0004 0EE0     		b	.L39
 397              	.LVL41:
 398              	.L40:
 245:MotorControl.c ****     {
 246:MotorControl.c ****         while(!readyForNextStep)
 399              		.loc 1 246 0 discriminator 1
 400 0006 094B     		ldr	r3, .L42
 401 0008 1B78     		ldrb	r3, [r3]	@ zero_extendqisi2
 402 000a 002B     		cmp	r3, #0
 403 000c FBD0     		beq	.L40
 247:MotorControl.c ****         {
 248:MotorControl.c ****         };
 249:MotorControl.c ****         step(Backward);
 404              		.loc 1 249 0
 405 000e 4FF0FF30 		mov	r0, #-1
 406 0012 FFF7FEFF 		bl	step
 407              	.LVL42:
 250:MotorControl.c ****         CyDelay(STEPSLEEP);
 408              		.loc 1 250 0
 409 0016 0520     		movs	r0, #5
 410 0018 FFF7FEFF 		bl	CyDelay
 411              	.LVL43:
 251:MotorControl.c ****         //UART_PutString("Step\r\n");
 252:MotorControl.c ****         readyForNextStep = false;
 412              		.loc 1 252 0
 413 001c 0022     		movs	r2, #0
 414 001e 034B     		ldr	r3, .L42
 415 0020 1A70     		strb	r2, [r3]
 253:MotorControl.c ****         x++;
 416              		.loc 1 253 0
 417 0022 0134     		adds	r4, r4, #1
 418              	.LVL44:
 419              	.L39:
 244:MotorControl.c ****     {
 420              		.loc 1 244 0
 421 0024 B4F5806F 		cmp	r4, #1024
 422 0028 EDDB     		blt	.L40
ARM GAS  C:\Users\au576633\AppData\Local\Temp\ccXiz9QD.s 			page 13


 254:MotorControl.c ****     }
 255:MotorControl.c **** };
 423              		.loc 1 255 0
 424 002a 10BD     		pop	{r4, pc}
 425              	.LVL45:
 426              	.L43:
 427              		.align	2
 428              	.L42:
 429 002c 00000000 		.word	.LANCHOR0
 430              		.cfi_endproc
 431              	.LFE69:
 432              		.size	revRotate180, .-revRotate180
 433              		.section	.text.step2,"ax",%progbits
 434              		.align	2
 435              		.global	step2
 436              		.thumb
 437              		.thumb_func
 438              		.type	step2, %function
 439              	step2:
 440              	.LFB70:
 256:MotorControl.c **** 
 257:MotorControl.c **** //----------------------------------------------------------------//
 258:MotorControl.c **** 
 259:MotorControl.c **** 
 260:MotorControl.c **** void step2(int mode)
 261:MotorControl.c **** {
 441              		.loc 1 261 0
 442              		.cfi_startproc
 443              		@ args = 0, pretend = 0, frame = 0
 444              		@ frame_needed = 0, uses_anonymous_args = 0
 445              	.LVL46:
 446 0000 10B5     		push	{r4, lr}
 447              		.cfi_def_cfa_offset 8
 448              		.cfi_offset 4, -8
 449              		.cfi_offset 14, -4
 450 0002 0446     		mov	r4, r0
 262:MotorControl.c **** 
 263:MotorControl.c ****     switch (nextStep2)
 451              		.loc 1 263 0
 452 0004 1A4B     		ldr	r3, .L54
 453 0006 9B68     		ldr	r3, [r3, #8]
 454 0008 032B     		cmp	r3, #3
 455 000a 2FD8     		bhi	.L44
 456 000c DFE803F0 		tbb	[pc, r3]
 457              	.L47:
 458 0010 02       		.byte	(.L46-.L47)/2
 459 0011 11       		.byte	(.L48-.L47)/2
 460 0012 19       		.byte	(.L49-.L47)/2
 461 0013 21       		.byte	(.L50-.L47)/2
 462              		.p2align 1
 463              	.L46:
 264:MotorControl.c ****     {
 265:MotorControl.c ****         case 0 :
 266:MotorControl.c ****         {
 267:MotorControl.c ****             Motor_Reg_2_Write(0b0011);
 464              		.loc 1 267 0
 465 0014 0320     		movs	r0, #3
ARM GAS  C:\Users\au576633\AppData\Local\Temp\ccXiz9QD.s 			page 14


 466              	.LVL47:
 467 0016 FFF7FEFF 		bl	Motor_Reg_2_Write
 468              	.LVL48:
 268:MotorControl.c ****             if(mode == -1)
 469              		.loc 1 268 0
 470 001a B4F1FF3F 		cmp	r4, #-1
 471 001e 03D1     		bne	.L51
 269:MotorControl.c ****             {
 270:MotorControl.c ****                 nextStep2 = 3;
 472              		.loc 1 270 0
 473 0020 0322     		movs	r2, #3
 474 0022 134B     		ldr	r3, .L54
 475 0024 9A60     		str	r2, [r3, #8]
 476 0026 10BD     		pop	{r4, pc}
 477              	.LVL49:
 478              	.L51:
 271:MotorControl.c ****             }
 272:MotorControl.c ****             else
 273:MotorControl.c ****             {
 274:MotorControl.c ****                 nextStep2 += mode;
 479              		.loc 1 274 0
 480 0028 114A     		ldr	r2, .L54
 481 002a 9368     		ldr	r3, [r2, #8]
 482 002c 1C44     		add	r4, r4, r3
 483              	.LVL50:
 484 002e 9460     		str	r4, [r2, #8]
 485 0030 10BD     		pop	{r4, pc}
 486              	.LVL51:
 487              	.L48:
 275:MotorControl.c ****             }
 276:MotorControl.c ****         }
 277:MotorControl.c ****             break;
 278:MotorControl.c ****         case 1 :
 279:MotorControl.c ****         {
 280:MotorControl.c ****             Motor_Reg_2_Write(0b0110);
 488              		.loc 1 280 0
 489 0032 0620     		movs	r0, #6
 490              	.LVL52:
 491 0034 FFF7FEFF 		bl	Motor_Reg_2_Write
 492              	.LVL53:
 281:MotorControl.c ****             nextStep2 += mode;
 493              		.loc 1 281 0
 494 0038 0D4A     		ldr	r2, .L54
 495 003a 9368     		ldr	r3, [r2, #8]
 496 003c 1C44     		add	r4, r4, r3
 497              	.LVL54:
 498 003e 9460     		str	r4, [r2, #8]
 282:MotorControl.c ****         }
 283:MotorControl.c ****             break;
 499              		.loc 1 283 0
 500 0040 10BD     		pop	{r4, pc}
 501              	.LVL55:
 502              	.L49:
 284:MotorControl.c ****         case 2 :
 285:MotorControl.c ****         {
 286:MotorControl.c ****             Motor_Reg_2_Write(0b1100);
 503              		.loc 1 286 0
ARM GAS  C:\Users\au576633\AppData\Local\Temp\ccXiz9QD.s 			page 15


 504 0042 0C20     		movs	r0, #12
 505              	.LVL56:
 506 0044 FFF7FEFF 		bl	Motor_Reg_2_Write
 507              	.LVL57:
 287:MotorControl.c ****             nextStep += mode;
 508              		.loc 1 287 0
 509 0048 094A     		ldr	r2, .L54
 510 004a 5368     		ldr	r3, [r2, #4]
 511 004c 1C44     		add	r4, r4, r3
 512              	.LVL58:
 513 004e 5460     		str	r4, [r2, #4]
 288:MotorControl.c ****         }
 289:MotorControl.c ****             break;
 514              		.loc 1 289 0
 515 0050 10BD     		pop	{r4, pc}
 516              	.LVL59:
 517              	.L50:
 290:MotorControl.c ****         case 3 :
 291:MotorControl.c ****         {
 292:MotorControl.c ****             Motor_Reg_2_Write(0b1001);
 518              		.loc 1 292 0
 519 0052 0920     		movs	r0, #9
 520              	.LVL60:
 521 0054 FFF7FEFF 		bl	Motor_Reg_2_Write
 522              	.LVL61:
 293:MotorControl.c ****             if(mode == 1)
 523              		.loc 1 293 0
 524 0058 012C     		cmp	r4, #1
 525 005a 03D1     		bne	.L52
 294:MotorControl.c ****             {
 295:MotorControl.c ****                 nextStep2 = 0;
 526              		.loc 1 295 0
 527 005c 0022     		movs	r2, #0
 528 005e 044B     		ldr	r3, .L54
 529 0060 9A60     		str	r2, [r3, #8]
 530 0062 10BD     		pop	{r4, pc}
 531              	.LVL62:
 532              	.L52:
 296:MotorControl.c ****             }
 297:MotorControl.c ****             else
 298:MotorControl.c ****             {
 299:MotorControl.c ****                 nextStep2 += mode;
 533              		.loc 1 299 0
 534 0064 024B     		ldr	r3, .L54
 535 0066 9A68     		ldr	r2, [r3, #8]
 536 0068 1444     		add	r4, r4, r2
 537              	.LVL63:
 538 006a 9C60     		str	r4, [r3, #8]
 539              	.L44:
 540 006c 10BD     		pop	{r4, pc}
 541              	.L55:
 542 006e 00BF     		.align	2
 543              	.L54:
 544 0070 00000000 		.word	.LANCHOR0
 545              		.cfi_endproc
 546              	.LFE70:
 547              		.size	step2, .-step2
ARM GAS  C:\Users\au576633\AppData\Local\Temp\ccXiz9QD.s 			page 16


 548              		.section	.text.Rotate902,"ax",%progbits
 549              		.align	2
 550              		.global	Rotate902
 551              		.thumb
 552              		.thumb_func
 553              		.type	Rotate902, %function
 554              	Rotate902:
 555              	.LFB71:
 300:MotorControl.c ****             }
 301:MotorControl.c ****         }
 302:MotorControl.c ****             break;
 303:MotorControl.c ****     }
 304:MotorControl.c **** }
 305:MotorControl.c **** 
 306:MotorControl.c **** 
 307:MotorControl.c **** void Rotate902()
 308:MotorControl.c **** {
 556              		.loc 1 308 0
 557              		.cfi_startproc
 558              		@ args = 0, pretend = 0, frame = 0
 559              		@ frame_needed = 0, uses_anonymous_args = 0
 560 0000 10B5     		push	{r4, lr}
 561              		.cfi_def_cfa_offset 8
 562              		.cfi_offset 4, -8
 563              		.cfi_offset 14, -4
 564              	.LVL64:
 309:MotorControl.c ****     int x = 0;
 565              		.loc 1 309 0
 566 0002 0024     		movs	r4, #0
 310:MotorControl.c ****     while(x < 512)
 567              		.loc 1 310 0
 568 0004 0DE0     		b	.L57
 569              	.LVL65:
 570              	.L58:
 311:MotorControl.c ****     {
 312:MotorControl.c ****         while(!readyForNextStep2)
 571              		.loc 1 312 0 discriminator 1
 572 0006 094B     		ldr	r3, .L60
 573 0008 5B78     		ldrb	r3, [r3, #1]	@ zero_extendqisi2
 574 000a 002B     		cmp	r3, #0
 575 000c FBD0     		beq	.L58
 313:MotorControl.c ****         {
 314:MotorControl.c ****         };
 315:MotorControl.c ****         step2(Forward);
 576              		.loc 1 315 0
 577 000e 0120     		movs	r0, #1
 578 0010 FFF7FEFF 		bl	step2
 579              	.LVL66:
 316:MotorControl.c ****         CyDelay(STEPSLEEP);
 580              		.loc 1 316 0
 581 0014 0520     		movs	r0, #5
 582 0016 FFF7FEFF 		bl	CyDelay
 583              	.LVL67:
 317:MotorControl.c ****         //UART_PutString("Step\r\n");
 318:MotorControl.c ****         readyForNextStep2 = false;
 584              		.loc 1 318 0
 585 001a 0022     		movs	r2, #0
ARM GAS  C:\Users\au576633\AppData\Local\Temp\ccXiz9QD.s 			page 17


 586 001c 034B     		ldr	r3, .L60
 587 001e 5A70     		strb	r2, [r3, #1]
 319:MotorControl.c ****         x++;
 588              		.loc 1 319 0
 589 0020 0134     		adds	r4, r4, #1
 590              	.LVL68:
 591              	.L57:
 310:MotorControl.c ****     {
 592              		.loc 1 310 0
 593 0022 B4F5007F 		cmp	r4, #512
 594 0026 EEDB     		blt	.L58
 320:MotorControl.c ****     }
 321:MotorControl.c **** };
 595              		.loc 1 321 0
 596 0028 10BD     		pop	{r4, pc}
 597              	.LVL69:
 598              	.L61:
 599 002a 00BF     		.align	2
 600              	.L60:
 601 002c 00000000 		.word	.LANCHOR0
 602              		.cfi_endproc
 603              	.LFE71:
 604              		.size	Rotate902, .-Rotate902
 605              		.section	.text.Rotate1802,"ax",%progbits
 606              		.align	2
 607              		.global	Rotate1802
 608              		.thumb
 609              		.thumb_func
 610              		.type	Rotate1802, %function
 611              	Rotate1802:
 612              	.LFB72:
 322:MotorControl.c **** 
 323:MotorControl.c **** void Rotate1802()
 324:MotorControl.c **** {
 613              		.loc 1 324 0
 614              		.cfi_startproc
 615              		@ args = 0, pretend = 0, frame = 0
 616              		@ frame_needed = 0, uses_anonymous_args = 0
 617 0000 10B5     		push	{r4, lr}
 618              		.cfi_def_cfa_offset 8
 619              		.cfi_offset 4, -8
 620              		.cfi_offset 14, -4
 621              	.LVL70:
 325:MotorControl.c ****     int x = 0;
 622              		.loc 1 325 0
 623 0002 0024     		movs	r4, #0
 326:MotorControl.c ****     while(x < 1024)
 624              		.loc 1 326 0
 625 0004 0DE0     		b	.L63
 626              	.LVL71:
 627              	.L64:
 327:MotorControl.c ****     {
 328:MotorControl.c ****         while(!readyForNextStep2)
 628              		.loc 1 328 0 discriminator 1
 629 0006 094B     		ldr	r3, .L66
 630 0008 5B78     		ldrb	r3, [r3, #1]	@ zero_extendqisi2
 631 000a 002B     		cmp	r3, #0
ARM GAS  C:\Users\au576633\AppData\Local\Temp\ccXiz9QD.s 			page 18


 632 000c FBD0     		beq	.L64
 329:MotorControl.c ****         {
 330:MotorControl.c ****         };
 331:MotorControl.c ****         step2(Forward);
 633              		.loc 1 331 0
 634 000e 0120     		movs	r0, #1
 635 0010 FFF7FEFF 		bl	step2
 636              	.LVL72:
 332:MotorControl.c ****         CyDelay(STEPSLEEP);
 637              		.loc 1 332 0
 638 0014 0520     		movs	r0, #5
 639 0016 FFF7FEFF 		bl	CyDelay
 640              	.LVL73:
 333:MotorControl.c ****         //UART_PutString("Step\r\n");
 334:MotorControl.c ****         readyForNextStep2 = false;
 641              		.loc 1 334 0
 642 001a 0022     		movs	r2, #0
 643 001c 034B     		ldr	r3, .L66
 644 001e 5A70     		strb	r2, [r3, #1]
 335:MotorControl.c ****         x++;
 645              		.loc 1 335 0
 646 0020 0134     		adds	r4, r4, #1
 647              	.LVL74:
 648              	.L63:
 326:MotorControl.c ****     {
 649              		.loc 1 326 0
 650 0022 B4F5806F 		cmp	r4, #1024
 651 0026 EEDB     		blt	.L64
 336:MotorControl.c ****     }
 337:MotorControl.c **** };
 652              		.loc 1 337 0
 653 0028 10BD     		pop	{r4, pc}
 654              	.LVL75:
 655              	.L67:
 656 002a 00BF     		.align	2
 657              	.L66:
 658 002c 00000000 		.word	.LANCHOR0
 659              		.cfi_endproc
 660              	.LFE72:
 661              		.size	Rotate1802, .-Rotate1802
 662              		.section	.text.revRotate902,"ax",%progbits
 663              		.align	2
 664              		.global	revRotate902
 665              		.thumb
 666              		.thumb_func
 667              		.type	revRotate902, %function
 668              	revRotate902:
 669              	.LFB73:
 338:MotorControl.c **** 
 339:MotorControl.c **** 
 340:MotorControl.c **** 
 341:MotorControl.c **** /*******************************************************************************
 342:MotorControl.c **** * Function Name: revRotate90
 343:MotorControl.c **** ********************************************************************************
 344:MotorControl.c **** *
 345:MotorControl.c **** * Summary:    This function totates the motor 90 counter clockwise degrees and works 
 346:MotorControl.c ****               the same way as rotate90
ARM GAS  C:\Users\au576633\AppData\Local\Temp\ccXiz9QD.s 			page 19


 347:MotorControl.c **** *
 348:MotorControl.c **** * Parameters:
 349:MotorControl.c **** *  None.
 350:MotorControl.c **** *
 351:MotorControl.c **** * Return:
 352:MotorControl.c **** *  None.
 353:MotorControl.c **** *
 354:MotorControl.c **** *******************************************************************************/
 355:MotorControl.c **** void revRotate902()
 356:MotorControl.c **** {
 670              		.loc 1 356 0
 671              		.cfi_startproc
 672              		@ args = 0, pretend = 0, frame = 0
 673              		@ frame_needed = 0, uses_anonymous_args = 0
 674 0000 10B5     		push	{r4, lr}
 675              		.cfi_def_cfa_offset 8
 676              		.cfi_offset 4, -8
 677              		.cfi_offset 14, -4
 678              	.LVL76:
 357:MotorControl.c ****     int x = 0;
 679              		.loc 1 357 0
 680 0002 0024     		movs	r4, #0
 358:MotorControl.c ****     while(x < 512)
 681              		.loc 1 358 0
 682 0004 0EE0     		b	.L69
 683              	.LVL77:
 684              	.L70:
 359:MotorControl.c ****     {
 360:MotorControl.c ****         while(!readyForNextStep2)
 685              		.loc 1 360 0 discriminator 1
 686 0006 0B4B     		ldr	r3, .L72
 687 0008 5B78     		ldrb	r3, [r3, #1]	@ zero_extendqisi2
 688 000a 002B     		cmp	r3, #0
 689 000c FBD0     		beq	.L70
 361:MotorControl.c ****         {
 362:MotorControl.c ****         };
 363:MotorControl.c ****         step2(Backward);
 690              		.loc 1 363 0
 691 000e 4FF0FF30 		mov	r0, #-1
 692 0012 FFF7FEFF 		bl	step2
 693              	.LVL78:
 364:MotorControl.c ****         CyDelay(STEPSLEEP);
 694              		.loc 1 364 0
 695 0016 0520     		movs	r0, #5
 696 0018 FFF7FEFF 		bl	CyDelay
 697              	.LVL79:
 365:MotorControl.c ****         //UART_PutString("Step\r\n");
 366:MotorControl.c ****         readyForNextStep2 = false;
 698              		.loc 1 366 0
 699 001c 0022     		movs	r2, #0
 700 001e 054B     		ldr	r3, .L72
 701 0020 5A70     		strb	r2, [r3, #1]
 367:MotorControl.c ****         x++;
 702              		.loc 1 367 0
 703 0022 0134     		adds	r4, r4, #1
 704              	.LVL80:
 705              	.L69:
ARM GAS  C:\Users\au576633\AppData\Local\Temp\ccXiz9QD.s 			page 20


 358:MotorControl.c ****     {
 706              		.loc 1 358 0
 707 0024 B4F5007F 		cmp	r4, #512
 708 0028 EDDB     		blt	.L70
 368:MotorControl.c ****     }
 369:MotorControl.c ****     UART_PutString("Rev\r\n");
 709              		.loc 1 369 0
 710 002a 0348     		ldr	r0, .L72+4
 711 002c FFF7FEFF 		bl	UART_PutString
 712              	.LVL81:
 713 0030 10BD     		pop	{r4, pc}
 714              	.LVL82:
 715              	.L73:
 716 0032 00BF     		.align	2
 717              	.L72:
 718 0034 00000000 		.word	.LANCHOR0
 719 0038 0C000000 		.word	.LC1
 720              		.cfi_endproc
 721              	.LFE73:
 722              		.size	revRotate902, .-revRotate902
 723              		.section	.text.revRotate1802,"ax",%progbits
 724              		.align	2
 725              		.global	revRotate1802
 726              		.thumb
 727              		.thumb_func
 728              		.type	revRotate1802, %function
 729              	revRotate1802:
 730              	.LFB74:
 370:MotorControl.c **** };
 371:MotorControl.c **** 
 372:MotorControl.c **** 
 373:MotorControl.c **** void revRotate1802()
 374:MotorControl.c **** {
 731              		.loc 1 374 0
 732              		.cfi_startproc
 733              		@ args = 0, pretend = 0, frame = 0
 734              		@ frame_needed = 0, uses_anonymous_args = 0
 735 0000 10B5     		push	{r4, lr}
 736              		.cfi_def_cfa_offset 8
 737              		.cfi_offset 4, -8
 738              		.cfi_offset 14, -4
 739              	.LVL83:
 375:MotorControl.c ****     int x = 0;
 740              		.loc 1 375 0
 741 0002 0024     		movs	r4, #0
 376:MotorControl.c ****     while(x < 1024)
 742              		.loc 1 376 0
 743 0004 0EE0     		b	.L75
 744              	.LVL84:
 745              	.L76:
 377:MotorControl.c ****     {
 378:MotorControl.c ****         while(!readyForNextStep2)
 746              		.loc 1 378 0 discriminator 1
 747 0006 094B     		ldr	r3, .L78
 748 0008 5B78     		ldrb	r3, [r3, #1]	@ zero_extendqisi2
 749 000a 002B     		cmp	r3, #0
 750 000c FBD0     		beq	.L76
ARM GAS  C:\Users\au576633\AppData\Local\Temp\ccXiz9QD.s 			page 21


 379:MotorControl.c ****         {
 380:MotorControl.c ****         };
 381:MotorControl.c ****         step2(Backward);
 751              		.loc 1 381 0
 752 000e 4FF0FF30 		mov	r0, #-1
 753 0012 FFF7FEFF 		bl	step2
 754              	.LVL85:
 382:MotorControl.c ****         CyDelay(STEPSLEEP);
 755              		.loc 1 382 0
 756 0016 0520     		movs	r0, #5
 757 0018 FFF7FEFF 		bl	CyDelay
 758              	.LVL86:
 383:MotorControl.c ****         //UART_PutString("Step\r\n");
 384:MotorControl.c ****         readyForNextStep2 = false;
 759              		.loc 1 384 0
 760 001c 0022     		movs	r2, #0
 761 001e 034B     		ldr	r3, .L78
 762 0020 5A70     		strb	r2, [r3, #1]
 385:MotorControl.c ****         x++;
 763              		.loc 1 385 0
 764 0022 0134     		adds	r4, r4, #1
 765              	.LVL87:
 766              	.L75:
 376:MotorControl.c ****     {
 767              		.loc 1 376 0
 768 0024 B4F5806F 		cmp	r4, #1024
 769 0028 EDDB     		blt	.L76
 386:MotorControl.c ****     }
 387:MotorControl.c **** };
 770              		.loc 1 387 0
 771 002a 10BD     		pop	{r4, pc}
 772              	.LVL88:
 773              	.L79:
 774              		.align	2
 775              	.L78:
 776 002c 00000000 		.word	.LANCHOR0
 777              		.cfi_endproc
 778              	.LFE74:
 779              		.size	revRotate1802, .-revRotate1802
 780              		.global	nextStep2
 781              		.global	readyForNextStep2
 782              		.global	steppingMode2
 783              		.global	stepCount2
 784              		.global	nextStep
 785              		.global	readyForNextStep
 786              		.global	steppingMode
 787              		.global	stepCount
 788              		.section	.rodata.str1.4,"aMS",%progbits,1
 789              		.align	2
 790              	.LC0:
 791 0000 466F7277 		.ascii	"Forward\015\012\000"
 791      6172640D 
 791      0A00
 792 000a 0000     		.space	2
 793              	.LC1:
 794 000c 5265760D 		.ascii	"Rev\015\012\000"
 794      0A00
ARM GAS  C:\Users\au576633\AppData\Local\Temp\ccXiz9QD.s 			page 22


 795              		.bss
 796              		.align	2
 797              		.set	.LANCHOR0,. + 0
 798              		.type	readyForNextStep, %object
 799              		.size	readyForNextStep, 1
 800              	readyForNextStep:
 801 0000 00       		.space	1
 802              		.type	readyForNextStep2, %object
 803              		.size	readyForNextStep2, 1
 804              	readyForNextStep2:
 805 0001 00       		.space	1
 806 0002 0000     		.space	2
 807              		.type	nextStep, %object
 808              		.size	nextStep, 4
 809              	nextStep:
 810 0004 00000000 		.space	4
 811              		.type	nextStep2, %object
 812              		.size	nextStep2, 4
 813              	nextStep2:
 814 0008 00000000 		.space	4
 815              		.type	steppingMode2, %object
 816              		.size	steppingMode2, 4
 817              	steppingMode2:
 818 000c 00000000 		.space	4
 819              		.type	stepCount2, %object
 820              		.size	stepCount2, 4
 821              	stepCount2:
 822 0010 00000000 		.space	4
 823              		.type	steppingMode, %object
 824              		.size	steppingMode, 4
 825              	steppingMode:
 826 0014 00000000 		.space	4
 827              		.type	stepCount, %object
 828              		.size	stepCount, 4
 829              	stepCount:
 830 0018 00000000 		.space	4
 831              		.text
 832              	.Letext0:
 833              		.file 2 "c:\\program files (x86)\\cypress\\psoc creator\\4.2\\psoc creator\\import\\gnu\\arm\\5.4.
 834              		.file 3 "c:\\program files (x86)\\cypress\\psoc creator\\4.2\\psoc creator\\import\\gnu\\arm\\5.4.
 835              		.file 4 "Generated_Source\\PSoC5/core_cm3.h"
 836              		.file 5 "Generated_Source\\PSoC5/Motor_Timer.h"
 837              		.file 6 "Generated_Source\\PSoC5/isr_timer.h"
 838              		.file 7 "Generated_Source\\PSoC5/Motor_Reg_1.h"
 839              		.file 8 "Generated_Source\\PSoC5/UART.h"
 840              		.file 9 "Generated_Source\\PSoC5/CyLib.h"
 841              		.file 10 "Generated_Source\\PSoC5/Motor_Reg_2.h"