ARM GAS  C:\Users\au576633\AppData\Local\Temp\ccK9fanM.s 			page 1


   1              		.syntax unified
   2              		.cpu cortex-m3
   3              		.fpu softvfp
   4              		.eabi_attribute 20, 1
   5              		.eabi_attribute 21, 1
   6              		.eabi_attribute 23, 3
   7              		.eabi_attribute 24, 1
   8              		.eabi_attribute 25, 1
   9              		.eabi_attribute 26, 1
  10              		.eabi_attribute 30, 1
  11              		.eabi_attribute 34, 1
  12              		.eabi_attribute 18, 4
  13              		.thumb
  14              		.syntax unified
  15              		.file	"RPi_IF.c"
  16              		.text
  17              	.Ltext0:
  18              		.cfi_sections	.debug_frame
  19              		.section	.text.resetReadBuffer,"ax",%progbits
  20              		.align	2
  21              		.global	resetReadBuffer
  22              		.thumb
  23              		.thumb_func
  24              		.type	resetReadBuffer, %function
  25              	resetReadBuffer:
  26              	.LFB65:
  27              		.file 1 "RPi_IF.c"
   1:RPi_IF.c      **** #include "RPi_IF.h"
   2:RPi_IF.c      **** 
   3:RPi_IF.c      **** #define DISPENSE_OFF 0x15
   4:RPi_IF.c      **** #define DISPENSE_ON 0x14
   5:RPi_IF.c      **** #define COIN_DETECTED 0x1E
   6:RPi_IF.c      **** #define DISPENSER_EMPTY 0x1F
   7:RPi_IF.c      **** #define DISPENSER_NOT_EMPTY 0x20
   8:RPi_IF.c      **** 
   9:RPi_IF.c      **** int n;
  10:RPi_IF.c      **** volatile int timer_run_out=0;
  11:RPi_IF.c      **** 
  12:RPi_IF.c      **** 
  13:RPi_IF.c      **** uint8_t readBuffer[256];
  14:RPi_IF.c      **** uint8_t writeBuffer[256];
  15:RPi_IF.c      **** 
  16:RPi_IF.c      **** 
  17:RPi_IF.c      **** /*******************************************************************************
  18:RPi_IF.c      **** * Function Name: RPI_IF_init
  19:RPi_IF.c      **** ********************************************************************************
  20:RPi_IF.c      **** *
  21:RPi_IF.c      **** * Summary:    This function initialises the I2C communication between the PSoC
  22:RPi_IF.c      ****               and the GameController
  23:RPi_IF.c      **** *
  24:RPi_IF.c      **** * Parameters:
  25:RPi_IF.c      **** *  None.
  26:RPi_IF.c      **** *
  27:RPi_IF.c      **** * Return:
  28:RPi_IF.c      **** *  None.
  29:RPi_IF.c      **** *
  30:RPi_IF.c      **** *******************************************************************************/
ARM GAS  C:\Users\au576633\AppData\Local\Temp\ccK9fanM.s 			page 2


  31:RPi_IF.c      **** void RPI_IF_init()
  32:RPi_IF.c      **** {
  33:RPi_IF.c      ****     I2C_Start();
  34:RPi_IF.c      ****     I2C_EnableInt();
  35:RPi_IF.c      ****     
  36:RPi_IF.c      ****     I2C_SlaveInitReadBuf((uint8_t*)readBuffer,255);
  37:RPi_IF.c      ****     I2C_SlaveInitWriteBuf((uint8_t*)writeBuffer,255);
  38:RPi_IF.c      ****     
  39:RPi_IF.c      ****     resetReadBuffer();
  40:RPi_IF.c      **** 
  41:RPi_IF.c      **** }
  42:RPi_IF.c      **** 
  43:RPi_IF.c      **** 
  44:RPi_IF.c      **** 
  45:RPi_IF.c      **** /*******************************************************************************
  46:RPi_IF.c      **** * Function Name: resetReadBuffer
  47:RPi_IF.c      **** ********************************************************************************
  48:RPi_IF.c      **** *
  49:RPi_IF.c      **** * Summary:    This function clears the I2C readbuffer during initialisation
  50:RPi_IF.c      **** *
  51:RPi_IF.c      **** * Parameters:
  52:RPi_IF.c      **** *  None.
  53:RPi_IF.c      **** *
  54:RPi_IF.c      **** * Return:
  55:RPi_IF.c      **** *  None.
  56:RPi_IF.c      **** *
  57:RPi_IF.c      **** *******************************************************************************/
  58:RPi_IF.c      **** void resetReadBuffer()
  59:RPi_IF.c      **** {
  28              		.loc 1 59 0
  29              		.cfi_startproc
  30              		@ args = 0, pretend = 0, frame = 0
  31              		@ frame_needed = 0, uses_anonymous_args = 0
  32              		@ link register save eliminated.
  33              	.LVL0:
  34              	.LBB2:
  60:RPi_IF.c      ****     for(int i = 0; i < 255; i++)
  35              		.loc 1 60 0
  36 0000 0023     		movs	r3, #0
  37 0002 03E0     		b	.L2
  38              	.LVL1:
  39              	.L3:
  61:RPi_IF.c      ****     {
  62:RPi_IF.c      ****         readBuffer[i] = 0xFF;
  40              		.loc 1 62 0 discriminator 3
  41 0004 FF21     		movs	r1, #255
  42 0006 034A     		ldr	r2, .L4
  43 0008 D154     		strb	r1, [r2, r3]
  60:RPi_IF.c      ****     for(int i = 0; i < 255; i++)
  44              		.loc 1 60 0 discriminator 3
  45 000a 0133     		adds	r3, r3, #1
  46              	.LVL2:
  47              	.L2:
  60:RPi_IF.c      ****     for(int i = 0; i < 255; i++)
  48              		.loc 1 60 0 is_stmt 0 discriminator 1
  49 000c FE2B     		cmp	r3, #254
  50 000e F9DD     		ble	.L3
ARM GAS  C:\Users\au576633\AppData\Local\Temp\ccK9fanM.s 			page 3


  51              	.LBE2:
  63:RPi_IF.c      ****     }
  64:RPi_IF.c      ****  
  65:RPi_IF.c      **** }
  52              		.loc 1 65 0 is_stmt 1
  53 0010 7047     		bx	lr
  54              	.L5:
  55 0012 00BF     		.align	2
  56              	.L4:
  57 0014 00000000 		.word	readBuffer
  58              		.cfi_endproc
  59              	.LFE65:
  60              		.size	resetReadBuffer, .-resetReadBuffer
  61              		.section	.text.RPI_IF_init,"ax",%progbits
  62              		.align	2
  63              		.global	RPI_IF_init
  64              		.thumb
  65              		.thumb_func
  66              		.type	RPI_IF_init, %function
  67              	RPI_IF_init:
  68              	.LFB64:
  32:RPi_IF.c      ****     I2C_Start();
  69              		.loc 1 32 0
  70              		.cfi_startproc
  71              		@ args = 0, pretend = 0, frame = 0
  72              		@ frame_needed = 0, uses_anonymous_args = 0
  73 0000 08B5     		push	{r3, lr}
  74              		.cfi_def_cfa_offset 8
  75              		.cfi_offset 3, -8
  76              		.cfi_offset 14, -4
  33:RPi_IF.c      ****     I2C_EnableInt();
  77              		.loc 1 33 0
  78 0002 FFF7FEFF 		bl	I2C_Start
  79              	.LVL3:
  34:RPi_IF.c      ****     
  80              		.loc 1 34 0
  81 0006 0122     		movs	r2, #1
  82 0008 064B     		ldr	r3, .L8
  83 000a 1A60     		str	r2, [r3]
  36:RPi_IF.c      ****     I2C_SlaveInitWriteBuf((uint8_t*)writeBuffer,255);
  84              		.loc 1 36 0
  85 000c FF21     		movs	r1, #255
  86 000e 0648     		ldr	r0, .L8+4
  87 0010 FFF7FEFF 		bl	I2C_SlaveInitReadBuf
  88              	.LVL4:
  37:RPi_IF.c      ****     
  89              		.loc 1 37 0
  90 0014 FF21     		movs	r1, #255
  91 0016 0548     		ldr	r0, .L8+8
  92 0018 FFF7FEFF 		bl	I2C_SlaveInitWriteBuf
  93              	.LVL5:
  39:RPi_IF.c      **** 
  94              		.loc 1 39 0
  95 001c FFF7FEFF 		bl	resetReadBuffer
  96              	.LVL6:
  97 0020 08BD     		pop	{r3, pc}
  98              	.L9:
ARM GAS  C:\Users\au576633\AppData\Local\Temp\ccK9fanM.s 			page 4


  99 0022 00BF     		.align	2
 100              	.L8:
 101 0024 00E100E0 		.word	-536813312
 102 0028 00000000 		.word	readBuffer
 103 002c 00000000 		.word	writeBuffer
 104              		.cfi_endproc
 105              	.LFE64:
 106              		.size	RPI_IF_init, .-RPI_IF_init
 107              		.section	.text.SendToRPi,"ax",%progbits
 108              		.align	2
 109              		.global	SendToRPi
 110              		.thumb
 111              		.thumb_func
 112              		.type	SendToRPi, %function
 113              	SendToRPi:
 114              	.LFB68:
  66:RPi_IF.c      **** 
  67:RPi_IF.c      **** 
  68:RPi_IF.c      **** 
  69:RPi_IF.c      **** /*******************************************************************************
  70:RPi_IF.c      **** * Function Name: resetReadBuffer
  71:RPi_IF.c      **** ********************************************************************************
  72:RPi_IF.c      **** *
  73:RPi_IF.c      **** * Summary:    This function clears the I2C readbuffer during initialisation
  74:RPi_IF.c      **** *
  75:RPi_IF.c      **** * Parameters:
  76:RPi_IF.c      **** *  None.
  77:RPi_IF.c      **** *
  78:RPi_IF.c      **** * Return:
  79:RPi_IF.c      **** *  None.
  80:RPi_IF.c      **** *
  81:RPi_IF.c      **** *******************************************************************************/
  82:RPi_IF.c      **** void coinInserted()
  83:RPi_IF.c      **** {
  84:RPi_IF.c      ****     SendToRPi(COIN_DETECTED);
  85:RPi_IF.c      ****     dispenserStatus();
  86:RPi_IF.c      **** }
  87:RPi_IF.c      **** 
  88:RPi_IF.c      **** void dispenserStatus()
  89:RPi_IF.c      **** {
  90:RPi_IF.c      ****     if(countBalls() == 4)
  91:RPi_IF.c      ****     {
  92:RPi_IF.c      ****         SendToRPi(DISPENSER_EMPTY);
  93:RPi_IF.c      ****     }
  94:RPi_IF.c      ****     else if(countBalls() <= 2)
  95:RPi_IF.c      ****     {
  96:RPi_IF.c      ****         SendToRPi(DISPENSER_NOT_EMPTY);
  97:RPi_IF.c      ****     }
  98:RPi_IF.c      **** }
  99:RPi_IF.c      **** 
 100:RPi_IF.c      **** 
 101:RPi_IF.c      **** void SendToRPi(int message)
 102:RPi_IF.c      **** {
 115              		.loc 1 102 0
 116              		.cfi_startproc
 117              		@ args = 0, pretend = 0, frame = 0
 118              		@ frame_needed = 0, uses_anonymous_args = 0
ARM GAS  C:\Users\au576633\AppData\Local\Temp\ccK9fanM.s 			page 5


 119              	.LVL7:
 120 0000 10B5     		push	{r4, lr}
 121              		.cfi_def_cfa_offset 8
 122              		.cfi_offset 4, -8
 123              		.cfi_offset 14, -4
 124 0002 0446     		mov	r4, r0
 103:RPi_IF.c      ****     resetReadBuffer();
 125              		.loc 1 103 0
 126 0004 FFF7FEFF 		bl	resetReadBuffer
 127              	.LVL8:
 104:RPi_IF.c      ****     readBuffer[0] = message;
 128              		.loc 1 104 0
 129 0008 064B     		ldr	r3, .L12
 130 000a 1C70     		strb	r4, [r3]
 105:RPi_IF.c      ****     I2C_SlaveClearReadBuf();
 131              		.loc 1 105 0
 132 000c FFF7FEFF 		bl	I2C_SlaveClearReadBuf
 133              	.LVL9:
 106:RPi_IF.c      ****     Interrupt_Write(0);
 134              		.loc 1 106 0
 135 0010 0020     		movs	r0, #0
 136 0012 FFF7FEFF 		bl	Interrupt_Write
 137              	.LVL10:
 107:RPi_IF.c      ****     CyDelay(1);
 138              		.loc 1 107 0
 139 0016 0120     		movs	r0, #1
 140 0018 FFF7FEFF 		bl	CyDelay
 141              	.LVL11:
 108:RPi_IF.c      ****     Interrupt_Write(1);
 142              		.loc 1 108 0
 143 001c 0120     		movs	r0, #1
 144 001e FFF7FEFF 		bl	Interrupt_Write
 145              	.LVL12:
 146 0022 10BD     		pop	{r4, pc}
 147              	.LVL13:
 148              	.L13:
 149              		.align	2
 150              	.L12:
 151 0024 00000000 		.word	readBuffer
 152              		.cfi_endproc
 153              	.LFE68:
 154              		.size	SendToRPi, .-SendToRPi
 155              		.section	.text.dispenserStatus,"ax",%progbits
 156              		.align	2
 157              		.global	dispenserStatus
 158              		.thumb
 159              		.thumb_func
 160              		.type	dispenserStatus, %function
 161              	dispenserStatus:
 162              	.LFB67:
  89:RPi_IF.c      ****     if(countBalls() == 4)
 163              		.loc 1 89 0
 164              		.cfi_startproc
 165              		@ args = 0, pretend = 0, frame = 0
 166              		@ frame_needed = 0, uses_anonymous_args = 0
 167 0000 08B5     		push	{r3, lr}
 168              		.cfi_def_cfa_offset 8
ARM GAS  C:\Users\au576633\AppData\Local\Temp\ccK9fanM.s 			page 6


 169              		.cfi_offset 3, -8
 170              		.cfi_offset 14, -4
  90:RPi_IF.c      ****     {
 171              		.loc 1 90 0
 172 0002 FFF7FEFF 		bl	countBalls
 173              	.LVL14:
 174 0006 0428     		cmp	r0, #4
 175 0008 03D1     		bne	.L15
  92:RPi_IF.c      ****     }
 176              		.loc 1 92 0
 177 000a 1F20     		movs	r0, #31
 178 000c FFF7FEFF 		bl	SendToRPi
 179              	.LVL15:
 180 0010 08BD     		pop	{r3, pc}
 181              	.L15:
  94:RPi_IF.c      ****     {
 182              		.loc 1 94 0
 183 0012 FFF7FEFF 		bl	countBalls
 184              	.LVL16:
 185 0016 0228     		cmp	r0, #2
 186 0018 02DC     		bgt	.L14
  96:RPi_IF.c      ****     }
 187              		.loc 1 96 0
 188 001a 2020     		movs	r0, #32
 189 001c FFF7FEFF 		bl	SendToRPi
 190              	.LVL17:
 191              	.L14:
 192 0020 08BD     		pop	{r3, pc}
 193              		.cfi_endproc
 194              	.LFE67:
 195              		.size	dispenserStatus, .-dispenserStatus
 196 0022 00BF     		.section	.text.coinInserted,"ax",%progbits
 197              		.align	2
 198              		.global	coinInserted
 199              		.thumb
 200              		.thumb_func
 201              		.type	coinInserted, %function
 202              	coinInserted:
 203              	.LFB66:
  83:RPi_IF.c      ****     SendToRPi(COIN_DETECTED);
 204              		.loc 1 83 0
 205              		.cfi_startproc
 206              		@ args = 0, pretend = 0, frame = 0
 207              		@ frame_needed = 0, uses_anonymous_args = 0
 208 0000 08B5     		push	{r3, lr}
 209              		.cfi_def_cfa_offset 8
 210              		.cfi_offset 3, -8
 211              		.cfi_offset 14, -4
  84:RPi_IF.c      ****     dispenserStatus();
 212              		.loc 1 84 0
 213 0002 1E20     		movs	r0, #30
 214 0004 FFF7FEFF 		bl	SendToRPi
 215              	.LVL18:
  85:RPi_IF.c      **** }
 216              		.loc 1 85 0
 217 0008 FFF7FEFF 		bl	dispenserStatus
 218              	.LVL19:
ARM GAS  C:\Users\au576633\AppData\Local\Temp\ccK9fanM.s 			page 7


 219 000c 08BD     		pop	{r3, pc}
 220              		.cfi_endproc
 221              	.LFE66:
 222              		.size	coinInserted, .-coinInserted
 223 000e 00BF     		.section	.text.RPi_IF_handleData,"ax",%progbits
 224              		.align	2
 225              		.global	RPi_IF_handleData
 226              		.thumb
 227              		.thumb_func
 228              		.type	RPi_IF_handleData, %function
 229              	RPi_IF_handleData:
 230              	.LFB69:
 109:RPi_IF.c      **** }
 110:RPi_IF.c      **** 
 111:RPi_IF.c      **** 
 112:RPi_IF.c      **** 
 113:RPi_IF.c      **** /*******************************************************************************
 114:RPi_IF.c      **** * Function Name: RPi_IF_handleData
 115:RPi_IF.c      **** ********************************************************************************
 116:RPi_IF.c      **** *
 117:RPi_IF.c      **** * Summary:    This function reads the write buffer and calls the correct 
 118:RPi_IF.c      ****               function depending on the contents of the buffer
 119:RPi_IF.c      **** *
 120:RPi_IF.c      **** * Parameters:
 121:RPi_IF.c      **** *  None.
 122:RPi_IF.c      **** *
 123:RPi_IF.c      **** * Return:
 124:RPi_IF.c      **** *  None.
 125:RPi_IF.c      **** *
 126:RPi_IF.c      **** *******************************************************************************/
 127:RPi_IF.c      **** void RPi_IF_handleData()
 128:RPi_IF.c      **** {
 231              		.loc 1 128 0
 232              		.cfi_startproc
 233              		@ args = 0, pretend = 0, frame = 0
 234              		@ frame_needed = 0, uses_anonymous_args = 0
 235 0000 38B5     		push	{r3, r4, r5, lr}
 236              		.cfi_def_cfa_offset 16
 237              		.cfi_offset 3, -16
 238              		.cfi_offset 4, -12
 239              		.cfi_offset 5, -8
 240              		.cfi_offset 14, -4
 129:RPi_IF.c      ****     if(I2C_SlaveClearWriteStatus() & I2C_SSTAT_WR_CMPLT)
 241              		.loc 1 129 0
 242 0002 FFF7FEFF 		bl	I2C_SlaveClearWriteStatus
 243              	.LVL20:
 244 0006 10F0100F 		tst	r0, #16
 245 000a 19D0     		beq	.L20
 246              	.LBB3:
 130:RPi_IF.c      ****     {
 131:RPi_IF.c      ****         
 132:RPi_IF.c      ****         int writeSize = I2C_SlaveGetWriteBufSize();
 247              		.loc 1 132 0
 248 000c FFF7FEFF 		bl	I2C_SlaveGetWriteBufSize
 249              	.LVL21:
 250 0010 0546     		mov	r5, r0
 251              	.LVL22:
ARM GAS  C:\Users\au576633\AppData\Local\Temp\ccK9fanM.s 			page 8


 252              	.LBB4:
 133:RPi_IF.c      ****         for(int i = 0; i < writeSize; i++)
 253              		.loc 1 133 0
 254 0012 0024     		movs	r4, #0
 255 0014 12E0     		b	.L22
 256              	.LVL23:
 257              	.L26:
 134:RPi_IF.c      ****         {
 135:RPi_IF.c      ****             switch (writeBuffer[i])
 258              		.loc 1 135 0
 259 0016 0B4B     		ldr	r3, .L28
 260 0018 1B5D     		ldrb	r3, [r3, r4]	@ zero_extendqisi2
 261 001a 142B     		cmp	r3, #20
 262 001c 02D0     		beq	.L24
 263 001e 152B     		cmp	r3, #21
 264 0020 06D0     		beq	.L25
 265 0022 0AE0     		b	.L23
 266              	.L24:
 136:RPi_IF.c      ****             {
 137:RPi_IF.c      ****                 case DISPENSE_ON:{
 138:RPi_IF.c      ****                     UART_PutString("Enable\r\n");
 267              		.loc 1 138 0
 268 0024 0848     		ldr	r0, .L28+4
 269 0026 FFF7FEFF 		bl	UART_PutString
 270              	.LVL24:
 139:RPi_IF.c      ****                     enableDispenser();
 271              		.loc 1 139 0
 272 002a FFF7FEFF 		bl	enableDispenser
 273              	.LVL25:
 140:RPi_IF.c      ****                     break;}
 274              		.loc 1 140 0
 275 002e 04E0     		b	.L23
 276              	.L25:
 141:RPi_IF.c      ****                 case DISPENSE_OFF:{
 142:RPi_IF.c      ****                     UART_PutString("Disable\r\n");
 277              		.loc 1 142 0
 278 0030 0648     		ldr	r0, .L28+8
 279 0032 FFF7FEFF 		bl	UART_PutString
 280              	.LVL26:
 143:RPi_IF.c      ****                     disableDispenser();
 281              		.loc 1 143 0
 282 0036 FFF7FEFF 		bl	disableDispenser
 283              	.LVL27:
 284              	.L23:
 133:RPi_IF.c      ****         {
 285              		.loc 1 133 0 discriminator 2
 286 003a 0134     		adds	r4, r4, #1
 287              	.LVL28:
 288              	.L22:
 133:RPi_IF.c      ****         {
 289              		.loc 1 133 0 is_stmt 0 discriminator 1
 290 003c AC42     		cmp	r4, r5
 291 003e EADB     		blt	.L26
 292              	.LVL29:
 293              	.L20:
 294 0040 38BD     		pop	{r3, r4, r5, pc}
 295              	.L29:
ARM GAS  C:\Users\au576633\AppData\Local\Temp\ccK9fanM.s 			page 9


 296 0042 00BF     		.align	2
 297              	.L28:
 298 0044 00000000 		.word	writeBuffer
 299 0048 00000000 		.word	.LC0
 300 004c 0C000000 		.word	.LC1
 301              	.LBE4:
 302              	.LBE3:
 303              		.cfi_endproc
 304              	.LFE69:
 305              		.size	RPi_IF_handleData, .-RPi_IF_handleData
 306              		.comm	writeBuffer,256,4
 307              		.comm	readBuffer,256,4
 308              		.global	timer_run_out
 309              		.comm	n,4,4
 310              		.section	.rodata.str1.4,"aMS",%progbits,1
 311              		.align	2
 312              	.LC0:
 313 0000 456E6162 		.ascii	"Enable\015\012\000"
 313      6C650D0A 
 313      00
 314 0009 000000   		.space	3
 315              	.LC1:
 316 000c 44697361 		.ascii	"Disable\015\012\000"
 316      626C650D 
 316      0A00
 317              		.bss
 318              		.align	2
 319              		.type	timer_run_out, %object
 320              		.size	timer_run_out, 4
 321              	timer_run_out:
 322 0000 00000000 		.space	4
 323              		.text
 324              	.Letext0:
 325              		.file 2 "c:\\program files (x86)\\cypress\\psoc creator\\4.2\\psoc creator\\import\\gnu\\arm\\5.4.
 326              		.file 3 "c:\\program files (x86)\\cypress\\psoc creator\\4.2\\psoc creator\\import\\gnu\\arm\\5.4.
 327              		.file 4 "Generated_Source\\PSoC5/cytypes.h"
 328              		.file 5 "Generated_Source\\PSoC5/core_cm3.h"
 329              		.file 6 "Generated_Source\\PSoC5/I2C.h"
 330              		.file 7 "Generated_Source\\PSoC5/Interrupt.h"
 331              		.file 8 "Generated_Source\\PSoC5/CyLib.h"
 332              		.file 9 "Balldispenser.h"
 333              		.file 10 "Generated_Source\\PSoC5/UART.h"
 334              		.file 11 "CoinDetection.h"