ARM GAS  C:\Users\au576633\AppData\Local\Temp\ccqm4s4P.s 			page 1


   1              		.syntax unified
   2              		.cpu cortex-m3
   3              		.fpu softvfp
   4              		.eabi_attribute 20, 1
   5              		.eabi_attribute 21, 1
   6              		.eabi_attribute 23, 3
   7              		.eabi_attribute 24, 1
   8              		.eabi_attribute 25, 1
   9              		.eabi_attribute 26, 1
  10              		.eabi_attribute 30, 1
  11              		.eabi_attribute 34, 1
  12              		.eabi_attribute 18, 4
  13              		.thumb
  14              		.syntax unified
  15              		.file	"CoinDetection.c"
  16              		.text
  17              	.Ltext0:
  18              		.cfi_sections	.debug_frame
  19              		.section	.text.ISR_detection_handler,"ax",%progbits
  20              		.align	2
  21              		.global	ISR_detection_handler
  22              		.thumb
  23              		.thumb_func
  24              		.type	ISR_detection_handler, %function
  25              	ISR_detection_handler:
  26              	.LFB66:
  27              		.file 1 "CoinDetection.c"
   1:CoinDetection.c **** #include "CoinDetection.h"
   2:CoinDetection.c **** #define ISRENABLEDELAY 50
   3:CoinDetection.c **** 
   4:CoinDetection.c **** bool dispencerEnabled = true;
   5:CoinDetection.c **** 
   6:CoinDetection.c **** /*******************************************************************************
   7:CoinDetection.c **** * Function Name: handleCoinDetection
   8:CoinDetection.c **** ********************************************************************************
   9:CoinDetection.c **** *
  10:CoinDetection.c **** * Summary:    This function is called from the controller function,
  11:CoinDetection.c **** *             it sends a message to the game controller that a coin has been
  12:CoinDetection.c **** *             detected then checks if the dispencer is enabled and calls the
  13:CoinDetection.c **** *             appropriate function. Finnaly it reenables the detection ISR to 
  14:CoinDetection.c **** *             make the system ready for a new coin.
  15:CoinDetection.c **** *
  16:CoinDetection.c **** * Parameters:
  17:CoinDetection.c **** *  None.
  18:CoinDetection.c **** *
  19:CoinDetection.c **** * Return:
  20:CoinDetection.c **** *  None.
  21:CoinDetection.c **** *
  22:CoinDetection.c **** *******************************************************************************/
  23:CoinDetection.c **** void handleCoinDetection()
  24:CoinDetection.c **** {
  25:CoinDetection.c ****     if(dispencerEnabled)
  26:CoinDetection.c ****     {
  27:CoinDetection.c ****         acceptCoin();
  28:CoinDetection.c ****     }
  29:CoinDetection.c ****     else
  30:CoinDetection.c ****     {
ARM GAS  C:\Users\au576633\AppData\Local\Temp\ccqm4s4P.s 			page 2


  31:CoinDetection.c ****         rejectCoin();
  32:CoinDetection.c ****     }
  33:CoinDetection.c **** };
  34:CoinDetection.c **** 
  35:CoinDetection.c **** 
  36:CoinDetection.c **** 
  37:CoinDetection.c **** /*******************************************************************************
  38:CoinDetection.c **** * Function Name: initCoinDetector
  39:CoinDetection.c **** ********************************************************************************
  40:CoinDetection.c **** *
  41:CoinDetection.c **** * Summary:    This function initialises the detection ISR.
  42:CoinDetection.c **** *
  43:CoinDetection.c **** * Parameters:
  44:CoinDetection.c **** *  None.
  45:CoinDetection.c **** *
  46:CoinDetection.c **** * Return:
  47:CoinDetection.c **** *  None.
  48:CoinDetection.c **** *
  49:CoinDetection.c **** *******************************************************************************/
  50:CoinDetection.c **** void initCoinDetector()
  51:CoinDetection.c **** {
  52:CoinDetection.c ****     isr_detection_StartEx(ISR_detection_handler);
  53:CoinDetection.c **** };
  54:CoinDetection.c **** 
  55:CoinDetection.c **** 
  56:CoinDetection.c **** 
  57:CoinDetection.c **** /*******************************************************************************
  58:CoinDetection.c **** * Function Name: CY_ISR
  59:CoinDetection.c **** ********************************************************************************
  60:CoinDetection.c **** *
  61:CoinDetection.c **** * Summary:    This function is the default ISR handeler for the detection ISR.
  62:CoinDetection.c ****               It disables the ISR to prevent multiple coin detections then calls
  63:CoinDetection.c ****               the handleCoinDetection function. 
  64:CoinDetection.c **** *
  65:CoinDetection.c **** * Parameters:
  66:CoinDetection.c **** *  ISR_detection_handler spesifies which interrupt to handle
  67:CoinDetection.c **** *
  68:CoinDetection.c **** *******************************************************************************/
  69:CoinDetection.c **** CY_ISR(ISR_detection_handler)
  70:CoinDetection.c **** {
  28              		.loc 1 70 0
  29              		.cfi_startproc
  30              		@ args = 0, pretend = 0, frame = 0
  31              		@ frame_needed = 0, uses_anonymous_args = 0
  32 0000 08B5     		push	{r3, lr}
  33              		.cfi_def_cfa_offset 8
  34              		.cfi_offset 3, -8
  35              		.cfi_offset 14, -4
  71:CoinDetection.c ****     isr_detection_Disable();
  36              		.loc 1 71 0
  37 0002 FFF7FEFF 		bl	isr_detection_Disable
  38              	.LVL0:
  72:CoinDetection.c ****     UART_PutString("DetectionISR\r\n");
  39              		.loc 1 72 0
  40 0006 0348     		ldr	r0, .L3
  41 0008 FFF7FEFF 		bl	UART_PutString
  42              	.LVL1:
ARM GAS  C:\Users\au576633\AppData\Local\Temp\ccqm4s4P.s 			page 3


  73:CoinDetection.c ****     coinInserted();
  43              		.loc 1 73 0
  44 000c FFF7FEFF 		bl	coinInserted
  45              	.LVL2:
  46 0010 08BD     		pop	{r3, pc}
  47              	.L4:
  48 0012 00BF     		.align	2
  49              	.L3:
  50 0014 00000000 		.word	.LC0
  51              		.cfi_endproc
  52              	.LFE66:
  53              		.size	ISR_detection_handler, .-ISR_detection_handler
  54              		.section	.text.initCoinDetector,"ax",%progbits
  55              		.align	2
  56              		.global	initCoinDetector
  57              		.thumb
  58              		.thumb_func
  59              		.type	initCoinDetector, %function
  60              	initCoinDetector:
  61              	.LFB65:
  51:CoinDetection.c ****     isr_detection_StartEx(ISR_detection_handler);
  62              		.loc 1 51 0
  63              		.cfi_startproc
  64              		@ args = 0, pretend = 0, frame = 0
  65              		@ frame_needed = 0, uses_anonymous_args = 0
  66 0000 08B5     		push	{r3, lr}
  67              		.cfi_def_cfa_offset 8
  68              		.cfi_offset 3, -8
  69              		.cfi_offset 14, -4
  52:CoinDetection.c **** };
  70              		.loc 1 52 0
  71 0002 0248     		ldr	r0, .L7
  72 0004 FFF7FEFF 		bl	isr_detection_StartEx
  73              	.LVL3:
  74 0008 08BD     		pop	{r3, pc}
  75              	.L8:
  76 000a 00BF     		.align	2
  77              	.L7:
  78 000c 00000000 		.word	ISR_detection_handler
  79              		.cfi_endproc
  80              	.LFE65:
  81              		.size	initCoinDetector, .-initCoinDetector
  82              		.section	.text.rejectCoin,"ax",%progbits
  83              		.align	2
  84              		.global	rejectCoin
  85              		.thumb
  86              		.thumb_func
  87              		.type	rejectCoin, %function
  88              	rejectCoin:
  89              	.LFB67:
  74:CoinDetection.c **** }
  75:CoinDetection.c **** 
  76:CoinDetection.c **** 
  77:CoinDetection.c **** 
  78:CoinDetection.c **** /*******************************************************************************
  79:CoinDetection.c **** * Function Name: rejectCoin
  80:CoinDetection.c **** ********************************************************************************
ARM GAS  C:\Users\au576633\AppData\Local\Temp\ccqm4s4P.s 			page 4


  81:CoinDetection.c **** *
  82:CoinDetection.c **** * Summary:    This function is responcible for coin rejection, it calles the 
  83:CoinDetection.c ****               motor control functions required to reject a coin from the system.
  84:CoinDetection.c **** *
  85:CoinDetection.c **** * Parameters:
  86:CoinDetection.c **** *  None.
  87:CoinDetection.c **** *
  88:CoinDetection.c **** * Return:
  89:CoinDetection.c **** *  None.
  90:CoinDetection.c **** *
  91:CoinDetection.c **** *******************************************************************************/
  92:CoinDetection.c **** void rejectCoin()
  93:CoinDetection.c **** {
  90              		.loc 1 93 0
  91              		.cfi_startproc
  92              		@ args = 0, pretend = 0, frame = 0
  93              		@ frame_needed = 0, uses_anonymous_args = 0
  94 0000 08B5     		push	{r3, lr}
  95              		.cfi_def_cfa_offset 8
  96              		.cfi_offset 3, -8
  97              		.cfi_offset 14, -4
  94:CoinDetection.c ****     Rotate90();
  98              		.loc 1 94 0
  99 0002 FFF7FEFF 		bl	Rotate90
 100              	.LVL4:
  95:CoinDetection.c ****     revRotate90();
 101              		.loc 1 95 0
 102 0006 FFF7FEFF 		bl	revRotate90
 103              	.LVL5:
 104 000a 08BD     		pop	{r3, pc}
 105              		.cfi_endproc
 106              	.LFE67:
 107              		.size	rejectCoin, .-rejectCoin
 108              		.section	.text.acceptCoin,"ax",%progbits
 109              		.align	2
 110              		.global	acceptCoin
 111              		.thumb
 112              		.thumb_func
 113              		.type	acceptCoin, %function
 114              	acceptCoin:
 115              	.LFB68:
  96:CoinDetection.c **** };
  97:CoinDetection.c **** 
  98:CoinDetection.c **** 
  99:CoinDetection.c **** 
 100:CoinDetection.c **** /*******************************************************************************
 101:CoinDetection.c **** * Function Name: acceptCoin
 102:CoinDetection.c **** ********************************************************************************
 103:CoinDetection.c **** *
 104:CoinDetection.c **** * Summary:    This function is responcible for accepting a coin into the system, 
 105:CoinDetection.c ****               it calles the motor control functions required to accept a coin
 106:CoinDetection.c ****               then reenables the detection ISR to make the system ready for a 
 107:CoinDetection.c ****               new coin.
 108:CoinDetection.c **** *
 109:CoinDetection.c **** * Parameters:
 110:CoinDetection.c **** *  None.
 111:CoinDetection.c **** *
ARM GAS  C:\Users\au576633\AppData\Local\Temp\ccqm4s4P.s 			page 5


 112:CoinDetection.c **** * Return:
 113:CoinDetection.c **** *  None.
 114:CoinDetection.c **** *
 115:CoinDetection.c **** *******************************************************************************/
 116:CoinDetection.c **** void acceptCoin()
 117:CoinDetection.c **** {
 116              		.loc 1 117 0
 117              		.cfi_startproc
 118              		@ args = 0, pretend = 0, frame = 0
 119              		@ frame_needed = 0, uses_anonymous_args = 0
 120 0000 08B5     		push	{r3, lr}
 121              		.cfi_def_cfa_offset 8
 122              		.cfi_offset 3, -8
 123              		.cfi_offset 14, -4
 118:CoinDetection.c ****     revRotate90();
 124              		.loc 1 118 0
 125 0002 FFF7FEFF 		bl	revRotate90
 126              	.LVL6:
 119:CoinDetection.c ****     Rotate90();
 127              		.loc 1 119 0
 128 0006 FFF7FEFF 		bl	Rotate90
 129              	.LVL7:
 130 000a 08BD     		pop	{r3, pc}
 131              		.cfi_endproc
 132              	.LFE68:
 133              		.size	acceptCoin, .-acceptCoin
 134              		.section	.text.handleCoinDetection,"ax",%progbits
 135              		.align	2
 136              		.global	handleCoinDetection
 137              		.thumb
 138              		.thumb_func
 139              		.type	handleCoinDetection, %function
 140              	handleCoinDetection:
 141              	.LFB64:
  24:CoinDetection.c ****     if(dispencerEnabled)
 142              		.loc 1 24 0
 143              		.cfi_startproc
 144              		@ args = 0, pretend = 0, frame = 0
 145              		@ frame_needed = 0, uses_anonymous_args = 0
 146 0000 08B5     		push	{r3, lr}
 147              		.cfi_def_cfa_offset 8
 148              		.cfi_offset 3, -8
 149              		.cfi_offset 14, -4
  25:CoinDetection.c ****     {
 150              		.loc 1 25 0
 151 0002 044B     		ldr	r3, .L17
 152 0004 1B78     		ldrb	r3, [r3]	@ zero_extendqisi2
 153 0006 13B1     		cbz	r3, .L14
  27:CoinDetection.c ****     }
 154              		.loc 1 27 0
 155 0008 FFF7FEFF 		bl	acceptCoin
 156              	.LVL8:
 157 000c 08BD     		pop	{r3, pc}
 158              	.L14:
  31:CoinDetection.c ****     }
 159              		.loc 1 31 0
 160 000e FFF7FEFF 		bl	rejectCoin
ARM GAS  C:\Users\au576633\AppData\Local\Temp\ccqm4s4P.s 			page 6


 161              	.LVL9:
 162 0012 08BD     		pop	{r3, pc}
 163              	.L18:
 164              		.align	2
 165              	.L17:
 166 0014 00000000 		.word	.LANCHOR0
 167              		.cfi_endproc
 168              	.LFE64:
 169              		.size	handleCoinDetection, .-handleCoinDetection
 170              		.section	.text.disableDispenser,"ax",%progbits
 171              		.align	2
 172              		.global	disableDispenser
 173              		.thumb
 174              		.thumb_func
 175              		.type	disableDispenser, %function
 176              	disableDispenser:
 177              	.LFB69:
 120:CoinDetection.c **** };
 121:CoinDetection.c **** 
 122:CoinDetection.c **** 
 123:CoinDetection.c **** 
 124:CoinDetection.c **** /*******************************************************************************
 125:CoinDetection.c **** * Function Name: disableDispencer
 126:CoinDetection.c **** ********************************************************************************
 127:CoinDetection.c **** *
 128:CoinDetection.c **** * Summary:    This function disables the dispenser, this function is called from
 129:CoinDetection.c ****               the I2C handler when it recives a message from the game controller 
 130:CoinDetection.c ****               that the game is active.
 131:CoinDetection.c **** *
 132:CoinDetection.c **** * Parameters:
 133:CoinDetection.c **** *  None.
 134:CoinDetection.c **** *
 135:CoinDetection.c **** * Return:
 136:CoinDetection.c **** *  None.
 137:CoinDetection.c **** *
 138:CoinDetection.c **** *******************************************************************************/
 139:CoinDetection.c **** void disableDispenser()
 140:CoinDetection.c **** {
 178              		.loc 1 140 0
 179              		.cfi_startproc
 180              		@ args = 0, pretend = 0, frame = 0
 181              		@ frame_needed = 0, uses_anonymous_args = 0
 182 0000 08B5     		push	{r3, lr}
 183              		.cfi_def_cfa_offset 8
 184              		.cfi_offset 3, -8
 185              		.cfi_offset 14, -4
 141:CoinDetection.c ****     dispencerEnabled = false;
 186              		.loc 1 141 0
 187 0002 0022     		movs	r2, #0
 188 0004 024B     		ldr	r3, .L21
 189 0006 1A70     		strb	r2, [r3]
 142:CoinDetection.c ****     UART_PutString("Coinmaster 2000 disabled\r\n");
 190              		.loc 1 142 0
 191 0008 0248     		ldr	r0, .L21+4
 192 000a FFF7FEFF 		bl	UART_PutString
 193              	.LVL10:
 194 000e 08BD     		pop	{r3, pc}
ARM GAS  C:\Users\au576633\AppData\Local\Temp\ccqm4s4P.s 			page 7


 195              	.L22:
 196              		.align	2
 197              	.L21:
 198 0010 00000000 		.word	.LANCHOR0
 199 0014 10000000 		.word	.LC1
 200              		.cfi_endproc
 201              	.LFE69:
 202              		.size	disableDispenser, .-disableDispenser
 203              		.section	.text.enableDispenser,"ax",%progbits
 204              		.align	2
 205              		.global	enableDispenser
 206              		.thumb
 207              		.thumb_func
 208              		.type	enableDispenser, %function
 209              	enableDispenser:
 210              	.LFB70:
 143:CoinDetection.c **** };
 144:CoinDetection.c **** 
 145:CoinDetection.c **** 
 146:CoinDetection.c **** 
 147:CoinDetection.c **** /*******************************************************************************
 148:CoinDetection.c **** * Function Name: enableDispencer
 149:CoinDetection.c **** ********************************************************************************
 150:CoinDetection.c **** *
 151:CoinDetection.c **** * Summary:    This function enables the dispenser, this function is called from
 152:CoinDetection.c ****               the I2C handler when it recives a message from the game controller 
 153:CoinDetection.c ****               that the game is idle.
 154:CoinDetection.c **** *
 155:CoinDetection.c **** * Parameters:
 156:CoinDetection.c **** *  None.
 157:CoinDetection.c **** *
 158:CoinDetection.c **** * Return:
 159:CoinDetection.c **** *  None.
 160:CoinDetection.c **** *
 161:CoinDetection.c **** *******************************************************************************/
 162:CoinDetection.c **** void enableDispenser()
 163:CoinDetection.c **** {
 211              		.loc 1 163 0
 212              		.cfi_startproc
 213              		@ args = 0, pretend = 0, frame = 0
 214              		@ frame_needed = 0, uses_anonymous_args = 0
 215 0000 08B5     		push	{r3, lr}
 216              		.cfi_def_cfa_offset 8
 217              		.cfi_offset 3, -8
 218              		.cfi_offset 14, -4
 164:CoinDetection.c ****     dispencerEnabled = true;
 219              		.loc 1 164 0
 220 0002 0122     		movs	r2, #1
 221 0004 024B     		ldr	r3, .L25
 222 0006 1A70     		strb	r2, [r3]
 165:CoinDetection.c ****     UART_PutString("Coinmaster 2000 enabled\r\n");
 223              		.loc 1 165 0
 224 0008 0248     		ldr	r0, .L25+4
 225 000a FFF7FEFF 		bl	UART_PutString
 226              	.LVL11:
 227 000e 08BD     		pop	{r3, pc}
 228              	.L26:
ARM GAS  C:\Users\au576633\AppData\Local\Temp\ccqm4s4P.s 			page 8


 229              		.align	2
 230              	.L25:
 231 0010 00000000 		.word	.LANCHOR0
 232 0014 2C000000 		.word	.LC2
 233              		.cfi_endproc
 234              	.LFE70:
 235              		.size	enableDispenser, .-enableDispenser
 236              		.section	.text.resetDetectionISR,"ax",%progbits
 237              		.align	2
 238              		.global	resetDetectionISR
 239              		.thumb
 240              		.thumb_func
 241              		.type	resetDetectionISR, %function
 242              	resetDetectionISR:
 243              	.LFB71:
 166:CoinDetection.c **** };
 167:CoinDetection.c **** 
 168:CoinDetection.c **** 
 169:CoinDetection.c **** 
 170:CoinDetection.c **** /*******************************************************************************
 171:CoinDetection.c **** * Function Name: resetDetectionISR
 172:CoinDetection.c **** ********************************************************************************
 173:CoinDetection.c **** *
 174:CoinDetection.c **** * Summary:    Clears the interrupt and reenables the detection ISR.
 175:CoinDetection.c **** *
 176:CoinDetection.c **** * Parameters:
 177:CoinDetection.c **** *  None.
 178:CoinDetection.c **** *
 179:CoinDetection.c **** * Return:
 180:CoinDetection.c **** *  None.
 181:CoinDetection.c **** *
 182:CoinDetection.c **** *******************************************************************************/
 183:CoinDetection.c **** void resetDetectionISR()
 184:CoinDetection.c **** {
 244              		.loc 1 184 0
 245              		.cfi_startproc
 246              		@ args = 0, pretend = 0, frame = 0
 247              		@ frame_needed = 0, uses_anonymous_args = 0
 248 0000 08B5     		push	{r3, lr}
 249              		.cfi_def_cfa_offset 8
 250              		.cfi_offset 3, -8
 251              		.cfi_offset 14, -4
 185:CoinDetection.c ****     isr_detection_Enable();
 252              		.loc 1 185 0
 253 0002 FFF7FEFF 		bl	isr_detection_Enable
 254              	.LVL12:
 186:CoinDetection.c ****     isr_detection_ClearPending();
 255              		.loc 1 186 0
 256 0006 FFF7FEFF 		bl	isr_detection_ClearPending
 257              	.LVL13:
 258 000a 08BD     		pop	{r3, pc}
 259              		.cfi_endproc
 260              	.LFE71:
 261              		.size	resetDetectionISR, .-resetDetectionISR
 262              		.global	dispencerEnabled
 263              		.data
 264              		.set	.LANCHOR0,. + 0
ARM GAS  C:\Users\au576633\AppData\Local\Temp\ccqm4s4P.s 			page 9


 265              		.type	dispencerEnabled, %object
 266              		.size	dispencerEnabled, 1
 267              	dispencerEnabled:
 268 0000 01       		.byte	1
 269              		.section	.rodata.str1.4,"aMS",%progbits,1
 270              		.align	2
 271              	.LC0:
 272 0000 44657465 		.ascii	"DetectionISR\015\012\000"
 272      6374696F 
 272      6E495352 
 272      0D0A00
 273 000f 00       		.space	1
 274              	.LC1:
 275 0010 436F696E 		.ascii	"Coinmaster 2000 disabled\015\012\000"
 275      6D617374 
 275      65722032 
 275      30303020 
 275      64697361 
 276 002b 00       		.space	1
 277              	.LC2:
 278 002c 436F696E 		.ascii	"Coinmaster 2000 enabled\015\012\000"
 278      6D617374 
 278      65722032 
 278      30303020 
 278      656E6162 
 279              		.text
 280              	.Letext0:
 281              		.file 2 "c:\\program files (x86)\\cypress\\psoc creator\\4.2\\psoc creator\\import\\gnu\\arm\\5.4.
 282              		.file 3 "c:\\program files (x86)\\cypress\\psoc creator\\4.2\\psoc creator\\import\\gnu\\arm\\5.4.
 283              		.file 4 "Generated_Source\\PSoC5/core_cm3.h"
 284              		.file 5 "Generated_Source\\PSoC5/isr_detection.h"
 285              		.file 6 "Generated_Source\\PSoC5/UART.h"
 286              		.file 7 "controller.h"
 287              		.file 8 "MotorControl.h"