ARM GAS  C:\Users\au576633\AppData\Local\Temp\ccFVQyrg.s 			page 1


   1              		.syntax unified
   2              		.cpu cortex-m3
   3              		.fpu softvfp
   4              		.eabi_attribute 20, 1
   5              		.eabi_attribute 21, 1
   6              		.eabi_attribute 23, 3
   7              		.eabi_attribute 24, 1
   8              		.eabi_attribute 25, 1
   9              		.eabi_attribute 26, 1
  10              		.eabi_attribute 30, 1
  11              		.eabi_attribute 34, 1
  12              		.eabi_attribute 18, 4
  13              		.thumb
  14              		.syntax unified
  15              		.file	"controller.c"
  16              		.text
  17              	.Ltext0:
  18              		.cfi_sections	.debug_frame
  19              		.section	.text.resetReadBuffer,"ax",%progbits
  20              		.align	2
  21              		.global	resetReadBuffer
  22              		.thumb
  23              		.thumb_func
  24              		.type	resetReadBuffer, %function
  25              	resetReadBuffer:
  26              	.LFB65:
  27              		.file 1 "controller.c"
   1:controller.c  **** #include "controller.h"
   2:controller.c  **** 
   3:controller.c  **** #define DISPENSE_OFF 0x15
   4:controller.c  **** #define DISPENSE_ON 0x14
   5:controller.c  **** #define COIN_DETECTED 0x1E
   6:controller.c  **** #define DISPENSER_EMPTY 0x1F
   7:controller.c  **** #define DISPENSER_NOT_EMPTY 0x20
   8:controller.c  **** 
   9:controller.c  **** int n;
  10:controller.c  **** 
  11:controller.c  **** 
  12:controller.c  **** 
  13:controller.c  **** uint8_t readBuffer[256];
  14:controller.c  **** uint8_t writeBuffer[256];
  15:controller.c  **** 
  16:controller.c  **** 
  17:controller.c  **** 
  18:controller.c  **** 
  19:controller.c  **** /*******************************************************************************
  20:controller.c  **** * Function Name: RPI_IF_init
  21:controller.c  **** ********************************************************************************
  22:controller.c  **** *
  23:controller.c  **** * Summary:    This function initialises the I2C communication between the PSoC
  24:controller.c  ****               and the GameController
  25:controller.c  **** *
  26:controller.c  **** * Parameters:
  27:controller.c  **** *  None.
  28:controller.c  **** *
  29:controller.c  **** * Return:
  30:controller.c  **** *  None.
ARM GAS  C:\Users\au576633\AppData\Local\Temp\ccFVQyrg.s 			page 2


  31:controller.c  **** *
  32:controller.c  **** *******************************************************************************/
  33:controller.c  **** void initI2C()
  34:controller.c  **** {
  35:controller.c  ****     I2C_Start();
  36:controller.c  ****     I2C_EnableInt();
  37:controller.c  ****     
  38:controller.c  ****     I2C_SlaveInitReadBuf((uint8_t*)readBuffer,255);
  39:controller.c  ****     I2C_SlaveInitWriteBuf((uint8_t*)writeBuffer,255);
  40:controller.c  ****     
  41:controller.c  ****     resetReadBuffer();
  42:controller.c  **** 
  43:controller.c  **** }
  44:controller.c  **** 
  45:controller.c  **** 
  46:controller.c  **** 
  47:controller.c  **** /*******************************************************************************
  48:controller.c  **** * Function Name: resetReadBuffer
  49:controller.c  **** ********************************************************************************
  50:controller.c  **** *
  51:controller.c  **** * Summary:    This function clears the I2C readbuffer during initialisation
  52:controller.c  **** *
  53:controller.c  **** * Parameters:
  54:controller.c  **** *  None.
  55:controller.c  **** *
  56:controller.c  **** * Return:
  57:controller.c  **** *  None.
  58:controller.c  **** *
  59:controller.c  **** *******************************************************************************/
  60:controller.c  **** void resetReadBuffer()
  61:controller.c  **** {
  28              		.loc 1 61 0
  29              		.cfi_startproc
  30              		@ args = 0, pretend = 0, frame = 0
  31              		@ frame_needed = 0, uses_anonymous_args = 0
  32              		@ link register save eliminated.
  33              	.LVL0:
  34              	.LBB2:
  62:controller.c  ****     for(int i = 0; i < 255; i++)
  35              		.loc 1 62 0
  36 0000 0023     		movs	r3, #0
  37 0002 03E0     		b	.L2
  38              	.LVL1:
  39              	.L3:
  63:controller.c  ****     {
  64:controller.c  ****         readBuffer[i] = 0xFF;
  40              		.loc 1 64 0 discriminator 3
  41 0004 FF21     		movs	r1, #255
  42 0006 034A     		ldr	r2, .L4
  43 0008 D154     		strb	r1, [r2, r3]
  62:controller.c  ****     for(int i = 0; i < 255; i++)
  44              		.loc 1 62 0 discriminator 3
  45 000a 0133     		adds	r3, r3, #1
  46              	.LVL2:
  47              	.L2:
  62:controller.c  ****     for(int i = 0; i < 255; i++)
  48              		.loc 1 62 0 is_stmt 0 discriminator 1
ARM GAS  C:\Users\au576633\AppData\Local\Temp\ccFVQyrg.s 			page 3


  49 000c FE2B     		cmp	r3, #254
  50 000e F9DD     		ble	.L3
  51              	.LBE2:
  65:controller.c  ****     }
  66:controller.c  ****  
  67:controller.c  **** }
  52              		.loc 1 67 0 is_stmt 1
  53 0010 7047     		bx	lr
  54              	.L5:
  55 0012 00BF     		.align	2
  56              	.L4:
  57 0014 00000000 		.word	readBuffer
  58              		.cfi_endproc
  59              	.LFE65:
  60              		.size	resetReadBuffer, .-resetReadBuffer
  61              		.section	.text.initI2C,"ax",%progbits
  62              		.align	2
  63              		.global	initI2C
  64              		.thumb
  65              		.thumb_func
  66              		.type	initI2C, %function
  67              	initI2C:
  68              	.LFB64:
  34:controller.c  ****     I2C_Start();
  69              		.loc 1 34 0
  70              		.cfi_startproc
  71              		@ args = 0, pretend = 0, frame = 0
  72              		@ frame_needed = 0, uses_anonymous_args = 0
  73 0000 08B5     		push	{r3, lr}
  74              		.cfi_def_cfa_offset 8
  75              		.cfi_offset 3, -8
  76              		.cfi_offset 14, -4
  35:controller.c  ****     I2C_EnableInt();
  77              		.loc 1 35 0
  78 0002 FFF7FEFF 		bl	I2C_Start
  79              	.LVL3:
  36:controller.c  ****     
  80              		.loc 1 36 0
  81 0006 0122     		movs	r2, #1
  82 0008 064B     		ldr	r3, .L8
  83 000a 1A60     		str	r2, [r3]
  38:controller.c  ****     I2C_SlaveInitWriteBuf((uint8_t*)writeBuffer,255);
  84              		.loc 1 38 0
  85 000c FF21     		movs	r1, #255
  86 000e 0648     		ldr	r0, .L8+4
  87 0010 FFF7FEFF 		bl	I2C_SlaveInitReadBuf
  88              	.LVL4:
  39:controller.c  ****     
  89              		.loc 1 39 0
  90 0014 FF21     		movs	r1, #255
  91 0016 0548     		ldr	r0, .L8+8
  92 0018 FFF7FEFF 		bl	I2C_SlaveInitWriteBuf
  93              	.LVL5:
  41:controller.c  **** 
  94              		.loc 1 41 0
  95 001c FFF7FEFF 		bl	resetReadBuffer
  96              	.LVL6:
ARM GAS  C:\Users\au576633\AppData\Local\Temp\ccFVQyrg.s 			page 4


  97 0020 08BD     		pop	{r3, pc}
  98              	.L9:
  99 0022 00BF     		.align	2
 100              	.L8:
 101 0024 00E100E0 		.word	-536813312
 102 0028 00000000 		.word	readBuffer
 103 002c 00000000 		.word	writeBuffer
 104              		.cfi_endproc
 105              	.LFE64:
 106              		.size	initI2C, .-initI2C
 107              		.section	.text.SendToRPi,"ax",%progbits
 108              		.align	2
 109              		.global	SendToRPi
 110              		.thumb
 111              		.thumb_func
 112              		.type	SendToRPi, %function
 113              	SendToRPi:
 114              	.LFB69:
  68:controller.c  **** 
  69:controller.c  **** 
  70:controller.c  **** 
  71:controller.c  **** /*******************************************************************************
  72:controller.c  **** * Function Name: coinInserted()
  73:controller.c  **** ********************************************************************************
  74:controller.c  **** *
  75:controller.c  **** * Summary:    This function is called when the system detects that a coin has
  76:controller.c  **** *             entered the system. It then calls the appropriate functions to 
  77:controller.c  **** *             handle the coin itself as well as dispense balls and message the
  78:controller.c  **** *             RPi.
  79:controller.c  **** *
  80:controller.c  **** * Parameters:
  81:controller.c  **** *  None.
  82:controller.c  **** *
  83:controller.c  **** * Return:
  84:controller.c  **** *  None.
  85:controller.c  **** *
  86:controller.c  **** *******************************************************************************/
  87:controller.c  **** void coinInserted()
  88:controller.c  **** {
  89:controller.c  ****     handleCoinDetection();
  90:controller.c  ****     if(countBalls() <= 2)
  91:controller.c  ****         {
  92:controller.c  ****             disableDispenser();
  93:controller.c  ****             sendDispenserStatus();
  94:controller.c  ****         }
  95:controller.c  ****     sendCoinDetected();
  96:controller.c  ****     DispenseBalls();
  97:controller.c  ****     resetDetectionISR();
  98:controller.c  **** }
  99:controller.c  **** 
 100:controller.c  **** 
 101:controller.c  **** 
 102:controller.c  **** /*******************************************************************************
 103:controller.c  **** * Function Name: dispenserStatus
 104:controller.c  **** ********************************************************************************
 105:controller.c  **** *
 106:controller.c  **** * Summary:    Sends the coin detected message to the RPi.
ARM GAS  C:\Users\au576633\AppData\Local\Temp\ccFVQyrg.s 			page 5


 107:controller.c  **** *
 108:controller.c  **** * Parameters:
 109:controller.c  **** *  None.
 110:controller.c  **** *
 111:controller.c  **** * Return:
 112:controller.c  **** *  None.
 113:controller.c  **** *
 114:controller.c  **** *******************************************************************************/
 115:controller.c  **** void sendCoinDetected()
 116:controller.c  **** {
 117:controller.c  ****     SendToRPi(COIN_DETECTED); 
 118:controller.c  **** }
 119:controller.c  **** 
 120:controller.c  **** 
 121:controller.c  **** 
 122:controller.c  **** /*******************************************************************************
 123:controller.c  **** * Function Name: dispenserStatus
 124:controller.c  **** ********************************************************************************
 125:controller.c  **** *
 126:controller.c  **** * Summary:    Sends the current ballDispenser status to the RPi.
 127:controller.c  **** *
 128:controller.c  **** * Parameters:
 129:controller.c  **** *  None.
 130:controller.c  **** *
 131:controller.c  **** * Return:
 132:controller.c  **** *  None.
 133:controller.c  **** *
 134:controller.c  **** *******************************************************************************/
 135:controller.c  **** void sendDispenserStatus()
 136:controller.c  **** {
 137:controller.c  ****     if(countBalls() == 4)
 138:controller.c  ****     {
 139:controller.c  ****         SendToRPi(DISPENSER_NOT_EMPTY);
 140:controller.c  ****     }
 141:controller.c  ****     else if(countBalls() < 2)
 142:controller.c  ****     {
 143:controller.c  ****         SendToRPi(DISPENSER_EMPTY);
 144:controller.c  ****     }
 145:controller.c  **** }
 146:controller.c  **** 
 147:controller.c  **** 
 148:controller.c  **** 
 149:controller.c  **** /*******************************************************************************
 150:controller.c  **** * Function Name: SendToRPi
 151:controller.c  **** ********************************************************************************
 152:controller.c  **** *
 153:controller.c  **** * Summary:    This function sends a message to the Rpi using the I2C protocol.
 154:controller.c  **** *
 155:controller.c  **** * Parameters:
 156:controller.c  **** *             uint8_t message: The message to be sendt to the Rpi.
 157:controller.c  **** *
 158:controller.c  **** * Return:
 159:controller.c  **** *  None.
 160:controller.c  **** *
 161:controller.c  **** *******************************************************************************/
 162:controller.c  **** void SendToRPi(uint8_t message)
 163:controller.c  **** {
ARM GAS  C:\Users\au576633\AppData\Local\Temp\ccFVQyrg.s 			page 6


 115              		.loc 1 163 0
 116              		.cfi_startproc
 117              		@ args = 0, pretend = 0, frame = 0
 118              		@ frame_needed = 0, uses_anonymous_args = 0
 119              	.LVL7:
 120 0000 10B5     		push	{r4, lr}
 121              		.cfi_def_cfa_offset 8
 122              		.cfi_offset 4, -8
 123              		.cfi_offset 14, -4
 124 0002 0446     		mov	r4, r0
 164:controller.c  ****     resetReadBuffer();
 125              		.loc 1 164 0
 126 0004 FFF7FEFF 		bl	resetReadBuffer
 127              	.LVL8:
 165:controller.c  ****     readBuffer[0] = message;
 128              		.loc 1 165 0
 129 0008 084B     		ldr	r3, .L12
 130 000a 1C70     		strb	r4, [r3]
 166:controller.c  ****     I2C_SlaveClearReadBuf();
 131              		.loc 1 166 0
 132 000c FFF7FEFF 		bl	I2C_SlaveClearReadBuf
 133              	.LVL9:
 167:controller.c  ****     CyDelay(1);
 134              		.loc 1 167 0
 135 0010 0120     		movs	r0, #1
 136 0012 FFF7FEFF 		bl	CyDelay
 137              	.LVL10:
 168:controller.c  ****     Interrupt_Write(0);
 138              		.loc 1 168 0
 139 0016 0020     		movs	r0, #0
 140 0018 FFF7FEFF 		bl	Interrupt_Write
 141              	.LVL11:
 169:controller.c  ****     CyDelay(15);
 142              		.loc 1 169 0
 143 001c 0F20     		movs	r0, #15
 144 001e FFF7FEFF 		bl	CyDelay
 145              	.LVL12:
 170:controller.c  ****     Interrupt_Write(1);
 146              		.loc 1 170 0
 147 0022 0120     		movs	r0, #1
 148 0024 FFF7FEFF 		bl	Interrupt_Write
 149              	.LVL13:
 150 0028 10BD     		pop	{r4, pc}
 151              	.L13:
 152 002a 00BF     		.align	2
 153              	.L12:
 154 002c 00000000 		.word	readBuffer
 155              		.cfi_endproc
 156              	.LFE69:
 157              		.size	SendToRPi, .-SendToRPi
 158              		.section	.text.sendCoinDetected,"ax",%progbits
 159              		.align	2
 160              		.global	sendCoinDetected
 161              		.thumb
 162              		.thumb_func
 163              		.type	sendCoinDetected, %function
 164              	sendCoinDetected:
ARM GAS  C:\Users\au576633\AppData\Local\Temp\ccFVQyrg.s 			page 7


 165              	.LFB67:
 116:controller.c  ****     SendToRPi(COIN_DETECTED); 
 166              		.loc 1 116 0
 167              		.cfi_startproc
 168              		@ args = 0, pretend = 0, frame = 0
 169              		@ frame_needed = 0, uses_anonymous_args = 0
 170 0000 08B5     		push	{r3, lr}
 171              		.cfi_def_cfa_offset 8
 172              		.cfi_offset 3, -8
 173              		.cfi_offset 14, -4
 117:controller.c  **** }
 174              		.loc 1 117 0
 175 0002 1E20     		movs	r0, #30
 176 0004 FFF7FEFF 		bl	SendToRPi
 177              	.LVL14:
 178 0008 08BD     		pop	{r3, pc}
 179              		.cfi_endproc
 180              	.LFE67:
 181              		.size	sendCoinDetected, .-sendCoinDetected
 182 000a 00BF     		.section	.text.sendDispenserStatus,"ax",%progbits
 183              		.align	2
 184              		.global	sendDispenserStatus
 185              		.thumb
 186              		.thumb_func
 187              		.type	sendDispenserStatus, %function
 188              	sendDispenserStatus:
 189              	.LFB68:
 136:controller.c  ****     if(countBalls() == 4)
 190              		.loc 1 136 0
 191              		.cfi_startproc
 192              		@ args = 0, pretend = 0, frame = 0
 193              		@ frame_needed = 0, uses_anonymous_args = 0
 194 0000 08B5     		push	{r3, lr}
 195              		.cfi_def_cfa_offset 8
 196              		.cfi_offset 3, -8
 197              		.cfi_offset 14, -4
 137:controller.c  ****     {
 198              		.loc 1 137 0
 199 0002 FFF7FEFF 		bl	countBalls
 200              	.LVL15:
 201 0006 0428     		cmp	r0, #4
 202 0008 03D1     		bne	.L17
 139:controller.c  ****     }
 203              		.loc 1 139 0
 204 000a 2020     		movs	r0, #32
 205 000c FFF7FEFF 		bl	SendToRPi
 206              	.LVL16:
 207 0010 08BD     		pop	{r3, pc}
 208              	.L17:
 141:controller.c  ****     {
 209              		.loc 1 141 0
 210 0012 FFF7FEFF 		bl	countBalls
 211              	.LVL17:
 212 0016 0128     		cmp	r0, #1
 213 0018 02DC     		bgt	.L16
 143:controller.c  ****     }
 214              		.loc 1 143 0
ARM GAS  C:\Users\au576633\AppData\Local\Temp\ccFVQyrg.s 			page 8


 215 001a 1F20     		movs	r0, #31
 216 001c FFF7FEFF 		bl	SendToRPi
 217              	.LVL18:
 218              	.L16:
 219 0020 08BD     		pop	{r3, pc}
 220              		.cfi_endproc
 221              	.LFE68:
 222              		.size	sendDispenserStatus, .-sendDispenserStatus
 223 0022 00BF     		.section	.text.coinInserted,"ax",%progbits
 224              		.align	2
 225              		.global	coinInserted
 226              		.thumb
 227              		.thumb_func
 228              		.type	coinInserted, %function
 229              	coinInserted:
 230              	.LFB66:
  88:controller.c  ****     handleCoinDetection();
 231              		.loc 1 88 0
 232              		.cfi_startproc
 233              		@ args = 0, pretend = 0, frame = 0
 234              		@ frame_needed = 0, uses_anonymous_args = 0
 235 0000 08B5     		push	{r3, lr}
 236              		.cfi_def_cfa_offset 8
 237              		.cfi_offset 3, -8
 238              		.cfi_offset 14, -4
  89:controller.c  ****     if(countBalls() <= 2)
 239              		.loc 1 89 0
 240 0002 FFF7FEFF 		bl	handleCoinDetection
 241              	.LVL19:
  90:controller.c  ****         {
 242              		.loc 1 90 0
 243 0006 FFF7FEFF 		bl	countBalls
 244              	.LVL20:
 245 000a 0228     		cmp	r0, #2
 246 000c 03DC     		bgt	.L21
  92:controller.c  ****             sendDispenserStatus();
 247              		.loc 1 92 0
 248 000e FFF7FEFF 		bl	disableDispenser
 249              	.LVL21:
  93:controller.c  ****         }
 250              		.loc 1 93 0
 251 0012 FFF7FEFF 		bl	sendDispenserStatus
 252              	.LVL22:
 253              	.L21:
  95:controller.c  ****     DispenseBalls();
 254              		.loc 1 95 0
 255 0016 FFF7FEFF 		bl	sendCoinDetected
 256              	.LVL23:
  96:controller.c  ****     resetDetectionISR();
 257              		.loc 1 96 0
 258 001a FFF7FEFF 		bl	DispenseBalls
 259              	.LVL24:
  97:controller.c  **** }
 260              		.loc 1 97 0
 261 001e FFF7FEFF 		bl	resetDetectionISR
 262              	.LVL25:
 263 0022 08BD     		pop	{r3, pc}
ARM GAS  C:\Users\au576633\AppData\Local\Temp\ccFVQyrg.s 			page 9


 264              		.cfi_endproc
 265              	.LFE66:
 266              		.size	coinInserted, .-coinInserted
 267              		.section	.text.handleI2CData,"ax",%progbits
 268              		.align	2
 269              		.global	handleI2CData
 270              		.thumb
 271              		.thumb_func
 272              		.type	handleI2CData, %function
 273              	handleI2CData:
 274              	.LFB70:
 171:controller.c  **** }
 172:controller.c  **** 
 173:controller.c  **** 
 174:controller.c  **** 
 175:controller.c  **** /*******************************************************************************
 176:controller.c  **** * Function Name: RPi_IF_handleData
 177:controller.c  **** ********************************************************************************
 178:controller.c  **** *
 179:controller.c  **** * Summary:    This function reads the write buffer and calls the correct 
 180:controller.c  ****               function depending on the contents of the buffer
 181:controller.c  **** *
 182:controller.c  **** * Parameters:
 183:controller.c  **** *  None.
 184:controller.c  **** *
 185:controller.c  **** * Return:
 186:controller.c  **** *  None.
 187:controller.c  **** *
 188:controller.c  **** *******************************************************************************/
 189:controller.c  **** void handleI2CData()
 190:controller.c  **** {
 275              		.loc 1 190 0
 276              		.cfi_startproc
 277              		@ args = 0, pretend = 0, frame = 0
 278              		@ frame_needed = 0, uses_anonymous_args = 0
 279 0000 38B5     		push	{r3, r4, r5, lr}
 280              		.cfi_def_cfa_offset 16
 281              		.cfi_offset 3, -16
 282              		.cfi_offset 4, -12
 283              		.cfi_offset 5, -8
 284              		.cfi_offset 14, -4
 191:controller.c  ****     if(I2C_SlaveClearWriteStatus() & I2C_SSTAT_WR_CMPLT)
 285              		.loc 1 191 0
 286 0002 FFF7FEFF 		bl	I2C_SlaveClearWriteStatus
 287              	.LVL26:
 288 0006 10F0100F 		tst	r0, #16
 289 000a 19D0     		beq	.L23
 290              	.LBB3:
 192:controller.c  ****     {
 193:controller.c  ****         
 194:controller.c  ****         int writeSize = I2C_SlaveGetWriteBufSize();
 291              		.loc 1 194 0
 292 000c FFF7FEFF 		bl	I2C_SlaveGetWriteBufSize
 293              	.LVL27:
 294 0010 0546     		mov	r5, r0
 295              	.LVL28:
 296              	.LBB4:
ARM GAS  C:\Users\au576633\AppData\Local\Temp\ccFVQyrg.s 			page 10


 195:controller.c  ****         for(int i = 0; i < writeSize; i++)
 297              		.loc 1 195 0
 298 0012 0024     		movs	r4, #0
 299 0014 12E0     		b	.L25
 300              	.LVL29:
 301              	.L29:
 196:controller.c  ****         {
 197:controller.c  ****             switch (writeBuffer[i])
 302              		.loc 1 197 0
 303 0016 0B4B     		ldr	r3, .L31
 304 0018 1B5D     		ldrb	r3, [r3, r4]	@ zero_extendqisi2
 305 001a 142B     		cmp	r3, #20
 306 001c 02D0     		beq	.L27
 307 001e 152B     		cmp	r3, #21
 308 0020 06D0     		beq	.L28
 309 0022 0AE0     		b	.L26
 310              	.L27:
 198:controller.c  ****             {
 199:controller.c  ****                 case DISPENSE_ON:{
 200:controller.c  ****                     UART_PutString("Enable\r\n");
 311              		.loc 1 200 0
 312 0024 0848     		ldr	r0, .L31+4
 313 0026 FFF7FEFF 		bl	UART_PutString
 314              	.LVL30:
 201:controller.c  ****                     enableDispenser();
 315              		.loc 1 201 0
 316 002a FFF7FEFF 		bl	enableDispenser
 317              	.LVL31:
 202:controller.c  ****                     break;}
 318              		.loc 1 202 0
 319 002e 04E0     		b	.L26
 320              	.L28:
 203:controller.c  ****                 case DISPENSE_OFF:{
 204:controller.c  ****                     UART_PutString("Disable\r\n");
 321              		.loc 1 204 0
 322 0030 0648     		ldr	r0, .L31+8
 323 0032 FFF7FEFF 		bl	UART_PutString
 324              	.LVL32:
 205:controller.c  ****                     disableDispenser();
 325              		.loc 1 205 0
 326 0036 FFF7FEFF 		bl	disableDispenser
 327              	.LVL33:
 328              	.L26:
 195:controller.c  ****         {
 329              		.loc 1 195 0 discriminator 2
 330 003a 0134     		adds	r4, r4, #1
 331              	.LVL34:
 332              	.L25:
 195:controller.c  ****         {
 333              		.loc 1 195 0 is_stmt 0 discriminator 1
 334 003c AC42     		cmp	r4, r5
 335 003e EADB     		blt	.L29
 336              	.LVL35:
 337              	.L23:
 338 0040 38BD     		pop	{r3, r4, r5, pc}
 339              	.L32:
 340 0042 00BF     		.align	2
ARM GAS  C:\Users\au576633\AppData\Local\Temp\ccFVQyrg.s 			page 11


 341              	.L31:
 342 0044 00000000 		.word	writeBuffer
 343 0048 00000000 		.word	.LC0
 344 004c 0C000000 		.word	.LC1
 345              	.LBE4:
 346              	.LBE3:
 347              		.cfi_endproc
 348              	.LFE70:
 349              		.size	handleI2CData, .-handleI2CData
 350              		.comm	writeBuffer,256,4
 351              		.comm	readBuffer,256,4
 352              		.comm	n,4,4
 353              		.section	.rodata.str1.4,"aMS",%progbits,1
 354              		.align	2
 355              	.LC0:
 356 0000 456E6162 		.ascii	"Enable\015\012\000"
 356      6C650D0A 
 356      00
 357 0009 000000   		.space	3
 358              	.LC1:
 359 000c 44697361 		.ascii	"Disable\015\012\000"
 359      626C650D 
 359      0A00
 360              		.text
 361              	.Letext0:
 362              		.file 2 "c:\\program files (x86)\\cypress\\psoc creator\\4.2\\psoc creator\\import\\gnu\\arm\\5.4.
 363              		.file 3 "c:\\program files (x86)\\cypress\\psoc creator\\4.2\\psoc creator\\import\\gnu\\arm\\5.4.
 364              		.file 4 "Generated_Source\\PSoC5/cytypes.h"
 365              		.file 5 "Generated_Source\\PSoC5/core_cm3.h"
 366              		.file 6 "Generated_Source\\PSoC5/I2C.h"
 367              		.file 7 "Generated_Source\\PSoC5/CyLib.h"
 368              		.file 8 "Generated_Source\\PSoC5/Interrupt.h"
 369              		.file 9 "Balldispenser.h"
 370              		.file 10 "CoinDetection.h"
 371              		.file 11 "Generated_Source\\PSoC5/UART.h"