ARM GAS  C:\Users\au576633\AppData\Local\Temp\cc8qfDKJ.s 			page 1


   1              		.syntax unified
   2              		.cpu cortex-m3
   3              		.fpu softvfp
   4              		.eabi_attribute 20, 1
   5              		.eabi_attribute 21, 1
   6              		.eabi_attribute 23, 3
   7              		.eabi_attribute 24, 1
   8              		.eabi_attribute 25, 1
   9              		.eabi_attribute 26, 1
  10              		.eabi_attribute 30, 1
  11              		.eabi_attribute 34, 1
  12              		.eabi_attribute 18, 4
  13              		.thumb
  14              		.syntax unified
  15              		.file	"RPi_IF.c"
  16              		.text
  17              	.Ltext0:
  18              		.cfi_sections	.debug_frame
  19              		.section	.text.resetReadBuffer,"ax",%progbits
  20              		.align	2
  21              		.global	resetReadBuffer
  22              		.thumb
  23              		.thumb_func
  24              		.type	resetReadBuffer, %function
  25              	resetReadBuffer:
  26              	.LFB65:
  27              		.file 1 "RPi_IF.c"
   1:RPi_IF.c      **** #include "RPi_IF.h"
   2:RPi_IF.c      **** 
   3:RPi_IF.c      **** #define DISPENSE_OFF 0x15
   4:RPi_IF.c      **** #define DISPENSE_ON 0x14
   5:RPi_IF.c      **** #define COIN_DETECTED 0x1E
   6:RPi_IF.c      **** #define DISPENSER_EMPTY 0x1F
   7:RPi_IF.c      **** #define DISPENSER_NOT_EMPTY 0x20
   8:RPi_IF.c      **** 
   9:RPi_IF.c      **** int n;
  10:RPi_IF.c      **** 
  11:RPi_IF.c      **** 
  12:RPi_IF.c      **** 
  13:RPi_IF.c      **** uint8_t readBuffer[256];
  14:RPi_IF.c      **** uint8_t writeBuffer[256];
  15:RPi_IF.c      **** 
  16:RPi_IF.c      **** 
  17:RPi_IF.c      **** /*******************************************************************************
  18:RPi_IF.c      **** * Function Name: RPI_IF_init
  19:RPi_IF.c      **** ********************************************************************************
  20:RPi_IF.c      **** *
  21:RPi_IF.c      **** * Summary:    This function initialises the I2C communication between the PSoC
  22:RPi_IF.c      ****               and the GameController
  23:RPi_IF.c      **** *
  24:RPi_IF.c      **** * Parameters:
  25:RPi_IF.c      **** *  None.
  26:RPi_IF.c      **** *
  27:RPi_IF.c      **** * Return:
  28:RPi_IF.c      **** *  None.
  29:RPi_IF.c      **** *
  30:RPi_IF.c      **** *******************************************************************************/
ARM GAS  C:\Users\au576633\AppData\Local\Temp\cc8qfDKJ.s 			page 2


  31:RPi_IF.c      **** void RPI_IF_init()
  32:RPi_IF.c      **** {
  33:RPi_IF.c      ****     I2C_Start();
  34:RPi_IF.c      ****     I2C_EnableInt();
  35:RPi_IF.c      ****     
  36:RPi_IF.c      ****     I2C_SlaveInitReadBuf((uint8_t*)readBuffer,255);
  37:RPi_IF.c      ****     I2C_SlaveInitWriteBuf((uint8_t*)writeBuffer,255);
  38:RPi_IF.c      ****     
  39:RPi_IF.c      ****     resetReadBuffer();
  40:RPi_IF.c      **** 
  41:RPi_IF.c      **** }
  42:RPi_IF.c      **** 
  43:RPi_IF.c      **** 
  44:RPi_IF.c      **** 
  45:RPi_IF.c      **** /*******************************************************************************
  46:RPi_IF.c      **** * Function Name: resetReadBuffer
  47:RPi_IF.c      **** ********************************************************************************
  48:RPi_IF.c      **** *
  49:RPi_IF.c      **** * Summary:    This function clears the I2C readbuffer during initialisation
  50:RPi_IF.c      **** *
  51:RPi_IF.c      **** * Parameters:
  52:RPi_IF.c      **** *  None.
  53:RPi_IF.c      **** *
  54:RPi_IF.c      **** * Return:
  55:RPi_IF.c      **** *  None.
  56:RPi_IF.c      **** *
  57:RPi_IF.c      **** *******************************************************************************/
  58:RPi_IF.c      **** void resetReadBuffer()
  59:RPi_IF.c      **** {
  28              		.loc 1 59 0
  29              		.cfi_startproc
  30              		@ args = 0, pretend = 0, frame = 0
  31              		@ frame_needed = 0, uses_anonymous_args = 0
  32              		@ link register save eliminated.
  33              	.LVL0:
  34              	.LBB2:
  60:RPi_IF.c      ****     for(int i = 0; i < 255; i++)
  35              		.loc 1 60 0
  36 0000 0023     		movs	r3, #0
  37 0002 03E0     		b	.L2
  38              	.LVL1:
  39              	.L3:
  61:RPi_IF.c      ****     {
  62:RPi_IF.c      ****         readBuffer[i] = 0xFF;
  40              		.loc 1 62 0 discriminator 3
  41 0004 FF21     		movs	r1, #255
  42 0006 034A     		ldr	r2, .L4
  43 0008 D154     		strb	r1, [r2, r3]
  60:RPi_IF.c      ****     for(int i = 0; i < 255; i++)
  44              		.loc 1 60 0 discriminator 3
  45 000a 0133     		adds	r3, r3, #1
  46              	.LVL2:
  47              	.L2:
  60:RPi_IF.c      ****     for(int i = 0; i < 255; i++)
  48              		.loc 1 60 0 is_stmt 0 discriminator 1
  49 000c FE2B     		cmp	r3, #254
  50 000e F9DD     		ble	.L3
ARM GAS  C:\Users\au576633\AppData\Local\Temp\cc8qfDKJ.s 			page 3


  51              	.LBE2:
  63:RPi_IF.c      ****     }
  64:RPi_IF.c      ****  
  65:RPi_IF.c      **** }
  52              		.loc 1 65 0 is_stmt 1
  53 0010 7047     		bx	lr
  54              	.L5:
  55 0012 00BF     		.align	2
  56              	.L4:
  57 0014 00000000 		.word	readBuffer
  58              		.cfi_endproc
  59              	.LFE65:
  60              		.size	resetReadBuffer, .-resetReadBuffer
  61              		.section	.text.RPI_IF_init,"ax",%progbits
  62              		.align	2
  63              		.global	RPI_IF_init
  64              		.thumb
  65              		.thumb_func
  66              		.type	RPI_IF_init, %function
  67              	RPI_IF_init:
  68              	.LFB64:
  32:RPi_IF.c      ****     I2C_Start();
  69              		.loc 1 32 0
  70              		.cfi_startproc
  71              		@ args = 0, pretend = 0, frame = 0
  72              		@ frame_needed = 0, uses_anonymous_args = 0
  73 0000 08B5     		push	{r3, lr}
  74              		.cfi_def_cfa_offset 8
  75              		.cfi_offset 3, -8
  76              		.cfi_offset 14, -4
  33:RPi_IF.c      ****     I2C_EnableInt();
  77              		.loc 1 33 0
  78 0002 FFF7FEFF 		bl	I2C_Start
  79              	.LVL3:
  34:RPi_IF.c      ****     
  80              		.loc 1 34 0
  81 0006 0122     		movs	r2, #1
  82 0008 064B     		ldr	r3, .L8
  83 000a 1A60     		str	r2, [r3]
  36:RPi_IF.c      ****     I2C_SlaveInitWriteBuf((uint8_t*)writeBuffer,255);
  84              		.loc 1 36 0
  85 000c FF21     		movs	r1, #255
  86 000e 0648     		ldr	r0, .L8+4
  87 0010 FFF7FEFF 		bl	I2C_SlaveInitReadBuf
  88              	.LVL4:
  37:RPi_IF.c      ****     
  89              		.loc 1 37 0
  90 0014 FF21     		movs	r1, #255
  91 0016 0548     		ldr	r0, .L8+8
  92 0018 FFF7FEFF 		bl	I2C_SlaveInitWriteBuf
  93              	.LVL5:
  39:RPi_IF.c      **** 
  94              		.loc 1 39 0
  95 001c FFF7FEFF 		bl	resetReadBuffer
  96              	.LVL6:
  97 0020 08BD     		pop	{r3, pc}
  98              	.L9:
ARM GAS  C:\Users\au576633\AppData\Local\Temp\cc8qfDKJ.s 			page 4


  99 0022 00BF     		.align	2
 100              	.L8:
 101 0024 00E100E0 		.word	-536813312
 102 0028 00000000 		.word	readBuffer
 103 002c 00000000 		.word	writeBuffer
 104              		.cfi_endproc
 105              	.LFE64:
 106              		.size	RPI_IF_init, .-RPI_IF_init
 107              		.section	.text.SendToRPi,"ax",%progbits
 108              		.align	2
 109              		.global	SendToRPi
 110              		.thumb
 111              		.thumb_func
 112              		.type	SendToRPi, %function
 113              	SendToRPi:
 114              	.LFB68:
  66:RPi_IF.c      **** 
  67:RPi_IF.c      **** 
  68:RPi_IF.c      **** 
  69:RPi_IF.c      **** void coinInserted()
  70:RPi_IF.c      **** {
  71:RPi_IF.c      ****     handleCoinDetection();
  72:RPi_IF.c      ****     if(countBalls() <= 2)
  73:RPi_IF.c      ****         {
  74:RPi_IF.c      ****             disableDispenser();
  75:RPi_IF.c      ****             dispenserStatus();
  76:RPi_IF.c      ****         }
  77:RPi_IF.c      ****     SendToRPi(COIN_DETECTED); 
  78:RPi_IF.c      ****     DispenseBalls();
  79:RPi_IF.c      ****     isr_detection_Enable();
  80:RPi_IF.c      ****     isr_detection_ClearPending();
  81:RPi_IF.c      **** }
  82:RPi_IF.c      **** 
  83:RPi_IF.c      **** void dispenserStatus()
  84:RPi_IF.c      **** {
  85:RPi_IF.c      ****     if(countBalls() == 4)
  86:RPi_IF.c      ****     {
  87:RPi_IF.c      ****         SendToRPi(DISPENSER_NOT_EMPTY);
  88:RPi_IF.c      ****     }
  89:RPi_IF.c      ****     else if(countBalls() < 2)
  90:RPi_IF.c      ****     {
  91:RPi_IF.c      ****         SendToRPi(DISPENSER_EMPTY);
  92:RPi_IF.c      ****     }
  93:RPi_IF.c      **** }
  94:RPi_IF.c      **** 
  95:RPi_IF.c      **** 
  96:RPi_IF.c      **** void SendToRPi(uint8_t message)
  97:RPi_IF.c      **** {
 115              		.loc 1 97 0
 116              		.cfi_startproc
 117              		@ args = 0, pretend = 0, frame = 0
 118              		@ frame_needed = 0, uses_anonymous_args = 0
 119              	.LVL7:
 120 0000 10B5     		push	{r4, lr}
 121              		.cfi_def_cfa_offset 8
 122              		.cfi_offset 4, -8
 123              		.cfi_offset 14, -4
ARM GAS  C:\Users\au576633\AppData\Local\Temp\cc8qfDKJ.s 			page 5


 124 0002 0446     		mov	r4, r0
  98:RPi_IF.c      ****     resetReadBuffer();
 125              		.loc 1 98 0
 126 0004 FFF7FEFF 		bl	resetReadBuffer
 127              	.LVL8:
  99:RPi_IF.c      ****     readBuffer[0] = message;
 128              		.loc 1 99 0
 129 0008 084B     		ldr	r3, .L12
 130 000a 1C70     		strb	r4, [r3]
 100:RPi_IF.c      ****     I2C_SlaveClearReadBuf();
 131              		.loc 1 100 0
 132 000c FFF7FEFF 		bl	I2C_SlaveClearReadBuf
 133              	.LVL9:
 101:RPi_IF.c      ****     CyDelay(1);
 134              		.loc 1 101 0
 135 0010 0120     		movs	r0, #1
 136 0012 FFF7FEFF 		bl	CyDelay
 137              	.LVL10:
 102:RPi_IF.c      ****     Interrupt_Write(0);
 138              		.loc 1 102 0
 139 0016 0020     		movs	r0, #0
 140 0018 FFF7FEFF 		bl	Interrupt_Write
 141              	.LVL11:
 103:RPi_IF.c      ****     CyDelay(15);
 142              		.loc 1 103 0
 143 001c 0F20     		movs	r0, #15
 144 001e FFF7FEFF 		bl	CyDelay
 145              	.LVL12:
 104:RPi_IF.c      ****     Interrupt_Write(1);
 146              		.loc 1 104 0
 147 0022 0120     		movs	r0, #1
 148 0024 FFF7FEFF 		bl	Interrupt_Write
 149              	.LVL13:
 150 0028 10BD     		pop	{r4, pc}
 151              	.L13:
 152 002a 00BF     		.align	2
 153              	.L12:
 154 002c 00000000 		.word	readBuffer
 155              		.cfi_endproc
 156              	.LFE68:
 157              		.size	SendToRPi, .-SendToRPi
 158              		.section	.text.dispenserStatus,"ax",%progbits
 159              		.align	2
 160              		.global	dispenserStatus
 161              		.thumb
 162              		.thumb_func
 163              		.type	dispenserStatus, %function
 164              	dispenserStatus:
 165              	.LFB67:
  84:RPi_IF.c      ****     if(countBalls() == 4)
 166              		.loc 1 84 0
 167              		.cfi_startproc
 168              		@ args = 0, pretend = 0, frame = 0
 169              		@ frame_needed = 0, uses_anonymous_args = 0
 170 0000 08B5     		push	{r3, lr}
 171              		.cfi_def_cfa_offset 8
 172              		.cfi_offset 3, -8
ARM GAS  C:\Users\au576633\AppData\Local\Temp\cc8qfDKJ.s 			page 6


 173              		.cfi_offset 14, -4
  85:RPi_IF.c      ****     {
 174              		.loc 1 85 0
 175 0002 FFF7FEFF 		bl	countBalls
 176              	.LVL14:
 177 0006 0428     		cmp	r0, #4
 178 0008 03D1     		bne	.L15
  87:RPi_IF.c      ****     }
 179              		.loc 1 87 0
 180 000a 2020     		movs	r0, #32
 181 000c FFF7FEFF 		bl	SendToRPi
 182              	.LVL15:
 183 0010 08BD     		pop	{r3, pc}
 184              	.L15:
  89:RPi_IF.c      ****     {
 185              		.loc 1 89 0
 186 0012 FFF7FEFF 		bl	countBalls
 187              	.LVL16:
 188 0016 0128     		cmp	r0, #1
 189 0018 02DC     		bgt	.L14
  91:RPi_IF.c      ****     }
 190              		.loc 1 91 0
 191 001a 1F20     		movs	r0, #31
 192 001c FFF7FEFF 		bl	SendToRPi
 193              	.LVL17:
 194              	.L14:
 195 0020 08BD     		pop	{r3, pc}
 196              		.cfi_endproc
 197              	.LFE67:
 198              		.size	dispenserStatus, .-dispenserStatus
 199 0022 00BF     		.section	.text.coinInserted,"ax",%progbits
 200              		.align	2
 201              		.global	coinInserted
 202              		.thumb
 203              		.thumb_func
 204              		.type	coinInserted, %function
 205              	coinInserted:
 206              	.LFB66:
  70:RPi_IF.c      ****     handleCoinDetection();
 207              		.loc 1 70 0
 208              		.cfi_startproc
 209              		@ args = 0, pretend = 0, frame = 0
 210              		@ frame_needed = 0, uses_anonymous_args = 0
 211 0000 08B5     		push	{r3, lr}
 212              		.cfi_def_cfa_offset 8
 213              		.cfi_offset 3, -8
 214              		.cfi_offset 14, -4
  71:RPi_IF.c      ****     if(countBalls() <= 2)
 215              		.loc 1 71 0
 216 0002 FFF7FEFF 		bl	handleCoinDetection
 217              	.LVL18:
  72:RPi_IF.c      ****         {
 218              		.loc 1 72 0
 219 0006 FFF7FEFF 		bl	countBalls
 220              	.LVL19:
 221 000a 0228     		cmp	r0, #2
 222 000c 03DC     		bgt	.L19
ARM GAS  C:\Users\au576633\AppData\Local\Temp\cc8qfDKJ.s 			page 7


  74:RPi_IF.c      ****             dispenserStatus();
 223              		.loc 1 74 0
 224 000e FFF7FEFF 		bl	disableDispenser
 225              	.LVL20:
  75:RPi_IF.c      ****         }
 226              		.loc 1 75 0
 227 0012 FFF7FEFF 		bl	dispenserStatus
 228              	.LVL21:
 229              	.L19:
  77:RPi_IF.c      ****     DispenseBalls();
 230              		.loc 1 77 0
 231 0016 1E20     		movs	r0, #30
 232 0018 FFF7FEFF 		bl	SendToRPi
 233              	.LVL22:
  78:RPi_IF.c      ****     isr_detection_Enable();
 234              		.loc 1 78 0
 235 001c FFF7FEFF 		bl	DispenseBalls
 236              	.LVL23:
  79:RPi_IF.c      ****     isr_detection_ClearPending();
 237              		.loc 1 79 0
 238 0020 FFF7FEFF 		bl	isr_detection_Enable
 239              	.LVL24:
  80:RPi_IF.c      **** }
 240              		.loc 1 80 0
 241 0024 FFF7FEFF 		bl	isr_detection_ClearPending
 242              	.LVL25:
 243 0028 08BD     		pop	{r3, pc}
 244              		.cfi_endproc
 245              	.LFE66:
 246              		.size	coinInserted, .-coinInserted
 247 002a 00BF     		.section	.text.RPi_IF_handleData,"ax",%progbits
 248              		.align	2
 249              		.global	RPi_IF_handleData
 250              		.thumb
 251              		.thumb_func
 252              		.type	RPi_IF_handleData, %function
 253              	RPi_IF_handleData:
 254              	.LFB69:
 105:RPi_IF.c      **** }
 106:RPi_IF.c      **** 
 107:RPi_IF.c      **** 
 108:RPi_IF.c      **** 
 109:RPi_IF.c      **** /*******************************************************************************
 110:RPi_IF.c      **** * Function Name: RPi_IF_handleData
 111:RPi_IF.c      **** ********************************************************************************
 112:RPi_IF.c      **** *
 113:RPi_IF.c      **** * Summary:    This function reads the write buffer and calls the correct 
 114:RPi_IF.c      ****               function depending on the contents of the buffer
 115:RPi_IF.c      **** *
 116:RPi_IF.c      **** * Parameters:
 117:RPi_IF.c      **** *  None.
 118:RPi_IF.c      **** *
 119:RPi_IF.c      **** * Return:
 120:RPi_IF.c      **** *  None.
 121:RPi_IF.c      **** *
 122:RPi_IF.c      **** *******************************************************************************/
 123:RPi_IF.c      **** void RPi_IF_handleData()
ARM GAS  C:\Users\au576633\AppData\Local\Temp\cc8qfDKJ.s 			page 8


 124:RPi_IF.c      **** {
 255              		.loc 1 124 0
 256              		.cfi_startproc
 257              		@ args = 0, pretend = 0, frame = 0
 258              		@ frame_needed = 0, uses_anonymous_args = 0
 259 0000 38B5     		push	{r3, r4, r5, lr}
 260              		.cfi_def_cfa_offset 16
 261              		.cfi_offset 3, -16
 262              		.cfi_offset 4, -12
 263              		.cfi_offset 5, -8
 264              		.cfi_offset 14, -4
 125:RPi_IF.c      ****     if(I2C_SlaveClearWriteStatus() & I2C_SSTAT_WR_CMPLT)
 265              		.loc 1 125 0
 266 0002 FFF7FEFF 		bl	I2C_SlaveClearWriteStatus
 267              	.LVL26:
 268 0006 10F0100F 		tst	r0, #16
 269 000a 19D0     		beq	.L21
 270              	.LBB3:
 126:RPi_IF.c      ****     {
 127:RPi_IF.c      ****         
 128:RPi_IF.c      ****         int writeSize = I2C_SlaveGetWriteBufSize();
 271              		.loc 1 128 0
 272 000c FFF7FEFF 		bl	I2C_SlaveGetWriteBufSize
 273              	.LVL27:
 274 0010 0546     		mov	r5, r0
 275              	.LVL28:
 276              	.LBB4:
 129:RPi_IF.c      ****         for(int i = 0; i < writeSize; i++)
 277              		.loc 1 129 0
 278 0012 0024     		movs	r4, #0
 279 0014 12E0     		b	.L23
 280              	.LVL29:
 281              	.L27:
 130:RPi_IF.c      ****         {
 131:RPi_IF.c      ****             switch (writeBuffer[i])
 282              		.loc 1 131 0
 283 0016 0B4B     		ldr	r3, .L29
 284 0018 1B5D     		ldrb	r3, [r3, r4]	@ zero_extendqisi2
 285 001a 142B     		cmp	r3, #20
 286 001c 02D0     		beq	.L25
 287 001e 152B     		cmp	r3, #21
 288 0020 06D0     		beq	.L26
 289 0022 0AE0     		b	.L24
 290              	.L25:
 132:RPi_IF.c      ****             {
 133:RPi_IF.c      ****                 case DISPENSE_ON:{
 134:RPi_IF.c      ****                     UART_PutString("Enable\r\n");
 291              		.loc 1 134 0
 292 0024 0848     		ldr	r0, .L29+4
 293 0026 FFF7FEFF 		bl	UART_PutString
 294              	.LVL30:
 135:RPi_IF.c      ****                     enableDispenser();
 295              		.loc 1 135 0
 296 002a FFF7FEFF 		bl	enableDispenser
 297              	.LVL31:
 136:RPi_IF.c      ****                     break;}
 298              		.loc 1 136 0
ARM GAS  C:\Users\au576633\AppData\Local\Temp\cc8qfDKJ.s 			page 9


 299 002e 04E0     		b	.L24
 300              	.L26:
 137:RPi_IF.c      ****                 case DISPENSE_OFF:{
 138:RPi_IF.c      ****                     UART_PutString("Disable\r\n");
 301              		.loc 1 138 0
 302 0030 0648     		ldr	r0, .L29+8
 303 0032 FFF7FEFF 		bl	UART_PutString
 304              	.LVL32:
 139:RPi_IF.c      ****                     disableDispenser();
 305              		.loc 1 139 0
 306 0036 FFF7FEFF 		bl	disableDispenser
 307              	.LVL33:
 308              	.L24:
 129:RPi_IF.c      ****         {
 309              		.loc 1 129 0 discriminator 2
 310 003a 0134     		adds	r4, r4, #1
 311              	.LVL34:
 312              	.L23:
 129:RPi_IF.c      ****         {
 313              		.loc 1 129 0 is_stmt 0 discriminator 1
 314 003c AC42     		cmp	r4, r5
 315 003e EADB     		blt	.L27
 316              	.LVL35:
 317              	.L21:
 318 0040 38BD     		pop	{r3, r4, r5, pc}
 319              	.L30:
 320 0042 00BF     		.align	2
 321              	.L29:
 322 0044 00000000 		.word	writeBuffer
 323 0048 00000000 		.word	.LC0
 324 004c 0C000000 		.word	.LC1
 325              	.LBE4:
 326              	.LBE3:
 327              		.cfi_endproc
 328              	.LFE69:
 329              		.size	RPi_IF_handleData, .-RPi_IF_handleData
 330              		.comm	writeBuffer,256,4
 331              		.comm	readBuffer,256,4
 332              		.comm	n,4,4
 333              		.section	.rodata.str1.4,"aMS",%progbits,1
 334              		.align	2
 335              	.LC0:
 336 0000 456E6162 		.ascii	"Enable\015\012\000"
 336      6C650D0A 
 336      00
 337 0009 000000   		.space	3
 338              	.LC1:
 339 000c 44697361 		.ascii	"Disable\015\012\000"
 339      626C650D 
 339      0A00
 340              		.text
 341              	.Letext0:
 342              		.file 2 "c:\\program files (x86)\\cypress\\psoc creator\\4.2\\psoc creator\\import\\gnu\\arm\\5.4.
 343              		.file 3 "c:\\program files (x86)\\cypress\\psoc creator\\4.2\\psoc creator\\import\\gnu\\arm\\5.4.
 344              		.file 4 "Generated_Source\\PSoC5/cytypes.h"
 345              		.file 5 "Generated_Source\\PSoC5/core_cm3.h"
 346              		.file 6 "Generated_Source\\PSoC5/I2C.h"
ARM GAS  C:\Users\au576633\AppData\Local\Temp\cc8qfDKJ.s 			page 10


 347              		.file 7 "Generated_Source\\PSoC5/CyLib.h"
 348              		.file 8 "Generated_Source\\PSoC5/Interrupt.h"
 349              		.file 9 "Balldispenser.h"
 350              		.file 10 "CoinDetection.h"
 351              		.file 11 "Generated_Source\\PSoC5/isr_detection.h"
 352              		.file 12 "Generated_Source\\PSoC5/UART.h"