ARM GAS  C:\Users\au576633\AppData\Local\Temp\ccrSkLhH.s 			page 1


   1              		.syntax unified
   2              		.cpu cortex-m3
   3              		.fpu softvfp
   4              		.eabi_attribute 20, 1
   5              		.eabi_attribute 21, 1
   6              		.eabi_attribute 23, 3
   7              		.eabi_attribute 24, 1
   8              		.eabi_attribute 25, 1
   9              		.eabi_attribute 26, 1
  10              		.eabi_attribute 30, 1
  11              		.eabi_attribute 34, 1
  12              		.eabi_attribute 18, 4
  13              		.thumb
  14              		.syntax unified
  15              		.file	"UART_debug.c"
  16              		.text
  17              	.Ltext0:
  18              		.cfi_sections	.debug_frame
  19              		.section	.text.handleCommand,"ax",%progbits
  20              		.align	2
  21              		.global	handleCommand
  22              		.thumb
  23              		.thumb_func
  24              		.type	handleCommand, %function
  25              	handleCommand:
  26              	.LFB64:
  27              		.file 1 "UART_debug.c"
   1:UART_debug.c  ****  #include "UART_debug.h"
   2:UART_debug.c  **** 
   3:UART_debug.c  **** void handleCommand(char cmd)
   4:UART_debug.c  **** {
  28              		.loc 1 4 0
  29              		.cfi_startproc
  30              		@ args = 0, pretend = 0, frame = 0
  31              		@ frame_needed = 0, uses_anonymous_args = 0
  32              	.LVL0:
  33 0000 08B5     		push	{r3, lr}
  34              		.cfi_def_cfa_offset 8
  35              		.cfi_offset 3, -8
  36              		.cfi_offset 14, -4
   5:UART_debug.c  ****     switch(cmd)
  37              		.loc 1 5 0
  38 0002 3138     		subs	r0, r0, #49
  39              	.LVL1:
  40 0004 4828     		cmp	r0, #72
  41 0006 41D8     		bhi	.L1
  42 0008 DFE800F0 		tbb	[pc, r0]
  43              	.L4:
  44 000c 25       		.byte	(.L3-.L4)/2
  45 000d 29       		.byte	(.L5-.L4)/2
  46 000e 40       		.byte	(.L1-.L4)/2
  47 000f 40       		.byte	(.L1-.L4)/2
  48 0010 40       		.byte	(.L1-.L4)/2
  49 0011 40       		.byte	(.L1-.L4)/2
  50 0012 40       		.byte	(.L1-.L4)/2
  51 0013 40       		.byte	(.L1-.L4)/2
  52 0014 40       		.byte	(.L1-.L4)/2
ARM GAS  C:\Users\au576633\AppData\Local\Temp\ccrSkLhH.s 			page 2


  53 0015 40       		.byte	(.L1-.L4)/2
  54 0016 40       		.byte	(.L1-.L4)/2
  55 0017 40       		.byte	(.L1-.L4)/2
  56 0018 40       		.byte	(.L1-.L4)/2
  57 0019 40       		.byte	(.L1-.L4)/2
  58 001a 40       		.byte	(.L1-.L4)/2
  59 001b 40       		.byte	(.L1-.L4)/2
  60 001c 40       		.byte	(.L1-.L4)/2
  61 001d 40       		.byte	(.L1-.L4)/2
  62 001e 40       		.byte	(.L1-.L4)/2
  63 001f 40       		.byte	(.L1-.L4)/2
  64 0020 40       		.byte	(.L1-.L4)/2
  65 0021 40       		.byte	(.L1-.L4)/2
  66 0022 40       		.byte	(.L1-.L4)/2
  67 0023 40       		.byte	(.L1-.L4)/2
  68 0024 40       		.byte	(.L1-.L4)/2
  69 0025 40       		.byte	(.L1-.L4)/2
  70 0026 40       		.byte	(.L1-.L4)/2
  71 0027 40       		.byte	(.L1-.L4)/2
  72 0028 40       		.byte	(.L1-.L4)/2
  73 0029 40       		.byte	(.L1-.L4)/2
  74 002a 40       		.byte	(.L1-.L4)/2
  75 002b 40       		.byte	(.L1-.L4)/2
  76 002c 40       		.byte	(.L1-.L4)/2
  77 002d 40       		.byte	(.L1-.L4)/2
  78 002e 40       		.byte	(.L1-.L4)/2
  79 002f 40       		.byte	(.L1-.L4)/2
  80 0030 40       		.byte	(.L1-.L4)/2
  81 0031 40       		.byte	(.L1-.L4)/2
  82 0032 40       		.byte	(.L1-.L4)/2
  83 0033 40       		.byte	(.L1-.L4)/2
  84 0034 40       		.byte	(.L1-.L4)/2
  85 0035 40       		.byte	(.L1-.L4)/2
  86 0036 40       		.byte	(.L1-.L4)/2
  87 0037 40       		.byte	(.L1-.L4)/2
  88 0038 40       		.byte	(.L1-.L4)/2
  89 0039 40       		.byte	(.L1-.L4)/2
  90 003a 40       		.byte	(.L1-.L4)/2
  91 003b 40       		.byte	(.L1-.L4)/2
  92 003c 30       		.byte	(.L6-.L4)/2
  93 003d 40       		.byte	(.L1-.L4)/2
  94 003e 40       		.byte	(.L1-.L4)/2
  95 003f 40       		.byte	(.L1-.L4)/2
  96 0040 40       		.byte	(.L1-.L4)/2
  97 0041 40       		.byte	(.L1-.L4)/2
  98 0042 40       		.byte	(.L1-.L4)/2
  99 0043 40       		.byte	(.L1-.L4)/2
 100 0044 40       		.byte	(.L1-.L4)/2
 101 0045 40       		.byte	(.L1-.L4)/2
 102 0046 40       		.byte	(.L1-.L4)/2
 103 0047 40       		.byte	(.L1-.L4)/2
 104 0048 40       		.byte	(.L1-.L4)/2
 105 0049 40       		.byte	(.L1-.L4)/2
 106 004a 40       		.byte	(.L1-.L4)/2
 107 004b 3E       		.byte	(.L7-.L4)/2
 108 004c 40       		.byte	(.L1-.L4)/2
 109 004d 2D       		.byte	(.L8-.L4)/2
ARM GAS  C:\Users\au576633\AppData\Local\Temp\ccrSkLhH.s 			page 3


 110 004e 40       		.byte	(.L1-.L4)/2
 111 004f 33       		.byte	(.L9-.L4)/2
 112 0050 3A       		.byte	(.L10-.L4)/2
 113 0051 40       		.byte	(.L1-.L4)/2
 114 0052 40       		.byte	(.L1-.L4)/2
 115 0053 40       		.byte	(.L1-.L4)/2
 116 0054 36       		.byte	(.L11-.L4)/2
 117 0055 00       		.p2align 1
 118              	.L3:
   6:UART_debug.c  ****     {
   7:UART_debug.c  ****         
   8:UART_debug.c  ****         case '1' :
   9:UART_debug.c  ****         {
  10:UART_debug.c  ****             DispenseBalls(1);
 119              		.loc 1 10 0
 120 0056 0120     		movs	r0, #1
 121 0058 FFF7FEFF 		bl	DispenseBalls
 122              	.LVL2:
  11:UART_debug.c  ****         }
  12:UART_debug.c  ****             break;
 123              		.loc 1 12 0
 124 005c 08BD     		pop	{r3, pc}
 125              	.L5:
  13:UART_debug.c  ****         
  14:UART_debug.c  ****         case '2' :
  15:UART_debug.c  ****         {
  16:UART_debug.c  ****             DispenseBalls(2);
 126              		.loc 1 16 0
 127 005e 0220     		movs	r0, #2
 128 0060 FFF7FEFF 		bl	DispenseBalls
 129              	.LVL3:
  17:UART_debug.c  ****         }
  18:UART_debug.c  ****             break;
 130              		.loc 1 18 0
 131 0064 08BD     		pop	{r3, pc}
 132              	.L8:
  19:UART_debug.c  ****         
  20:UART_debug.c  ****         case 'r' :
  21:UART_debug.c  ****         {
  22:UART_debug.c  ****             rejectCoin();
 133              		.loc 1 22 0
 134 0066 FFF7FEFF 		bl	rejectCoin
 135              	.LVL4:
  23:UART_debug.c  ****         }
  24:UART_debug.c  ****             break;
 136              		.loc 1 24 0
 137 006a 08BD     		pop	{r3, pc}
 138              	.L6:
  25:UART_debug.c  **** 
  26:UART_debug.c  ****         case 'a' :
  27:UART_debug.c  ****         {
  28:UART_debug.c  ****             acceptCoin();
 139              		.loc 1 28 0
 140 006c FFF7FEFF 		bl	acceptCoin
 141              	.LVL5:
  29:UART_debug.c  ****         }
  30:UART_debug.c  ****             break;
ARM GAS  C:\Users\au576633\AppData\Local\Temp\ccrSkLhH.s 			page 4


 142              		.loc 1 30 0
 143 0070 08BD     		pop	{r3, pc}
 144              	.L9:
  31:UART_debug.c  ****         case 't' :
  32:UART_debug.c  ****         {
  33:UART_debug.c  ****             coinInserted();
 145              		.loc 1 33 0
 146 0072 FFF7FEFF 		bl	coinInserted
 147              	.LVL6:
  34:UART_debug.c  ****         }
  35:UART_debug.c  ****             break;
 148              		.loc 1 35 0
 149 0076 08BD     		pop	{r3, pc}
 150              	.L11:
  36:UART_debug.c  ****         case 'y' :
  37:UART_debug.c  ****         {
  38:UART_debug.c  ****             SendToRPi(0x1f);
 151              		.loc 1 38 0
 152 0078 1F20     		movs	r0, #31
 153 007a FFF7FEFF 		bl	SendToRPi
 154              	.LVL7:
  39:UART_debug.c  ****         }
  40:UART_debug.c  ****             break;
 155              		.loc 1 40 0
 156 007e 08BD     		pop	{r3, pc}
 157              	.L10:
  41:UART_debug.c  ****         case 'u' :
  42:UART_debug.c  ****         {
  43:UART_debug.c  ****             SendToRPi(0x20);
 158              		.loc 1 43 0
 159 0080 2020     		movs	r0, #32
 160 0082 FFF7FEFF 		bl	SendToRPi
 161              	.LVL8:
  44:UART_debug.c  ****         }
  45:UART_debug.c  ****             break;
 162              		.loc 1 45 0
 163 0086 08BD     		pop	{r3, pc}
 164              	.L7:
  46:UART_debug.c  ****         
  47:UART_debug.c  ****         case 'p' :
  48:UART_debug.c  ****         {
  49:UART_debug.c  ****             countBalls();
 165              		.loc 1 49 0
 166 0088 FFF7FEFF 		bl	countBalls
 167              	.LVL9:
 168              	.L1:
 169 008c 08BD     		pop	{r3, pc}
 170              		.cfi_endproc
 171              	.LFE64:
 172              		.size	handleCommand, .-handleCommand
 173 008e 00BF     		.section	.text.handleUART,"ax",%progbits
 174              		.align	2
 175              		.global	handleUART
 176              		.thumb
 177              		.thumb_func
 178              		.type	handleUART, %function
 179              	handleUART:
ARM GAS  C:\Users\au576633\AppData\Local\Temp\ccrSkLhH.s 			page 5


 180              	.LFB65:
  50:UART_debug.c  ****         }
  51:UART_debug.c  ****             break;
  52:UART_debug.c  **** 
  53:UART_debug.c  ****         default :
  54:UART_debug.c  ****         {
  55:UART_debug.c  ****             // nothing
  56:UART_debug.c  ****         }
  57:UART_debug.c  ****             break;
  58:UART_debug.c  ****     }
  59:UART_debug.c  **** };
  60:UART_debug.c  **** 
  61:UART_debug.c  **** void handleUART()
  62:UART_debug.c  **** {
 181              		.loc 1 62 0
 182              		.cfi_startproc
 183              		@ args = 0, pretend = 0, frame = 0
 184              		@ frame_needed = 0, uses_anonymous_args = 0
 185 0000 10B5     		push	{r4, lr}
 186              		.cfi_def_cfa_offset 8
 187              		.cfi_offset 4, -8
 188              		.cfi_offset 14, -4
  63:UART_debug.c  ****     char cmdchar = UART_GetChar();
 189              		.loc 1 63 0
 190 0002 FFF7FEFF 		bl	UART_GetChar
 191              	.LVL10:
  64:UART_debug.c  ****     if (cmdchar)
 192              		.loc 1 64 0
 193 0006 40B1     		cbz	r0, .L13
 194 0008 0446     		mov	r4, r0
  65:UART_debug.c  ****     {
  66:UART_debug.c  ****         UART_PutChar(cmdchar); // echo back
 195              		.loc 1 66 0
 196 000a FFF7FEFF 		bl	UART_PutChar
 197              	.LVL11:
  67:UART_debug.c  ****         UART_PutString("\r\n");
 198              		.loc 1 67 0
 199 000e 0348     		ldr	r0, .L16
 200 0010 FFF7FEFF 		bl	UART_PutString
 201              	.LVL12:
  68:UART_debug.c  ****         handleCommand(cmdchar);
 202              		.loc 1 68 0
 203 0014 2046     		mov	r0, r4
 204 0016 FFF7FEFF 		bl	handleCommand
 205              	.LVL13:
 206              	.L13:
 207 001a 10BD     		pop	{r4, pc}
 208              	.L17:
 209              		.align	2
 210              	.L16:
 211 001c 00000000 		.word	.LC0
 212              		.cfi_endproc
 213              	.LFE65:
 214              		.size	handleUART, .-handleUART
 215              		.section	.text.ISR_UART_rx_handler,"ax",%progbits
 216              		.align	2
 217              		.global	ISR_UART_rx_handler
ARM GAS  C:\Users\au576633\AppData\Local\Temp\ccrSkLhH.s 			page 6


 218              		.thumb
 219              		.thumb_func
 220              		.type	ISR_UART_rx_handler, %function
 221              	ISR_UART_rx_handler:
 222              	.LFB66:
  69:UART_debug.c  ****     }
  70:UART_debug.c  **** };
  71:UART_debug.c  **** 
  72:UART_debug.c  **** CY_ISR(ISR_UART_rx_handler)
  73:UART_debug.c  ****         {
 223              		.loc 1 73 0
 224              		.cfi_startproc
 225              		@ args = 0, pretend = 0, frame = 0
 226              		@ frame_needed = 0, uses_anonymous_args = 0
 227 0000 08B5     		push	{r3, lr}
 228              		.cfi_def_cfa_offset 8
 229              		.cfi_offset 3, -8
 230              		.cfi_offset 14, -4
  74:UART_debug.c  ****                 handleUART();
 231              		.loc 1 74 0
 232 0002 FFF7FEFF 		bl	handleUART
 233              	.LVL14:
 234 0006 08BD     		pop	{r3, pc}
 235              		.cfi_endproc
 236              	.LFE66:
 237              		.size	ISR_UART_rx_handler, .-ISR_UART_rx_handler
 238              		.section	.text.initUART,"ax",%progbits
 239              		.align	2
 240              		.global	initUART
 241              		.thumb
 242              		.thumb_func
 243              		.type	initUART, %function
 244              	initUART:
 245              	.LFB67:
  75:UART_debug.c  ****         }
  76:UART_debug.c  **** 
  77:UART_debug.c  **** void initUART()
  78:UART_debug.c  **** {
 246              		.loc 1 78 0
 247              		.cfi_startproc
 248              		@ args = 0, pretend = 0, frame = 0
 249              		@ frame_needed = 0, uses_anonymous_args = 0
 250 0000 08B5     		push	{r3, lr}
 251              		.cfi_def_cfa_offset 8
 252              		.cfi_offset 3, -8
 253              		.cfi_offset 14, -4
  79:UART_debug.c  ****     isr_uart_rx_StartEx(ISR_UART_rx_handler);
 254              		.loc 1 79 0
 255 0002 0948     		ldr	r0, .L22
 256 0004 FFF7FEFF 		bl	isr_uart_rx_StartEx
 257              	.LVL15:
  80:UART_debug.c  ****     UART_Start();
 258              		.loc 1 80 0
 259 0008 FFF7FEFF 		bl	UART_Start
 260              	.LVL16:
  81:UART_debug.c  ****     UART_PutString("Coinmaster 2000 ready for service\r\n");
 261              		.loc 1 81 0
ARM GAS  C:\Users\au576633\AppData\Local\Temp\ccrSkLhH.s 			page 7


 262 000c 0748     		ldr	r0, .L22+4
 263 000e FFF7FEFF 		bl	UART_PutString
 264              	.LVL17:
  82:UART_debug.c  ****     UART_PutString("r: Reject Coin\r\n");
 265              		.loc 1 82 0
 266 0012 0748     		ldr	r0, .L22+8
 267 0014 FFF7FEFF 		bl	UART_PutString
 268              	.LVL18:
  83:UART_debug.c  ****     UART_PutString("a: Accept Coin\r\n");
 269              		.loc 1 83 0
 270 0018 0648     		ldr	r0, .L22+12
 271 001a FFF7FEFF 		bl	UART_PutString
 272              	.LVL19:
  84:UART_debug.c  ****     UART_PutString("R: Reset Detector ISR");
 273              		.loc 1 84 0
 274 001e 0648     		ldr	r0, .L22+16
 275 0020 FFF7FEFF 		bl	UART_PutString
 276              	.LVL20:
 277 0024 08BD     		pop	{r3, pc}
 278              	.L23:
 279 0026 00BF     		.align	2
 280              	.L22:
 281 0028 00000000 		.word	ISR_UART_rx_handler
 282 002c 04000000 		.word	.LC1
 283 0030 28000000 		.word	.LC2
 284 0034 3C000000 		.word	.LC3
 285 0038 50000000 		.word	.LC4
 286              		.cfi_endproc
 287              	.LFE67:
 288              		.size	initUART, .-initUART
 289              		.section	.rodata.str1.4,"aMS",%progbits,1
 290              		.align	2
 291              	.LC0:
 292 0000 0D0A00   		.ascii	"\015\012\000"
 293 0003 00       		.space	1
 294              	.LC1:
 295 0004 436F696E 		.ascii	"Coinmaster 2000 ready for service\015\012\000"
 295      6D617374 
 295      65722032 
 295      30303020 
 295      72656164 
 296              	.LC2:
 297 0028 723A2052 		.ascii	"r: Reject Coin\015\012\000"
 297      656A6563 
 297      7420436F 
 297      696E0D0A 
 297      00
 298 0039 000000   		.space	3
 299              	.LC3:
 300 003c 613A2041 		.ascii	"a: Accept Coin\015\012\000"
 300      63636570 
 300      7420436F 
 300      696E0D0A 
 300      00
 301 004d 000000   		.space	3
 302              	.LC4:
 303 0050 523A2052 		.ascii	"R: Reset Detector ISR\000"
ARM GAS  C:\Users\au576633\AppData\Local\Temp\ccrSkLhH.s 			page 8


 303      65736574 
 303      20446574 
 303      6563746F 
 303      72204953 
 304              		.text
 305              	.Letext0:
 306              		.file 2 "c:\\program files (x86)\\cypress\\psoc creator\\4.2\\psoc creator\\import\\gnu\\arm\\5.4.
 307              		.file 3 "c:\\program files (x86)\\cypress\\psoc creator\\4.2\\psoc creator\\import\\gnu\\arm\\5.4.
 308              		.file 4 "Balldispenser.h"
 309              		.file 5 "CoinDetection.h"
 310              		.file 6 "controller.h"
 311              		.file 7 "Generated_Source\\PSoC5/UART.h"
 312              		.file 8 "Generated_Source\\PSoC5/isr_uart_rx.h"
 313              		.file 9 "Generated_Source\\PSoC5/core_cm3.h"